(dp1
S'clinic'
p2
(dp3
S'sortable'
p4
I4
sS'type'
p5
S'reference clinics'
p6
sS'sql'
p7
S'INTEGER REFERENCES clinics (id) ON DELETE CASCADE'
p8
ssS'sti_testing'
p9
(dp10
g4
I2
sg5
S'boolean'
p11
sg7
S'CHAR(1)'
p12
ssS'user'
p13
(dp14
S'type'
p15
S'reference clinics'
p16
sS'sortable'
p17
I2
sS'sql'
p18
S'INTEGER REFERENCES clinics (id) ON DELETE CASCADE'
p19
ssS'service'
p20
(dp21
<<<<<<< HEAD
g15
<<<<<<< HEAD
S'reference service'
p22
sg17
I3
=======
I3
sg16
S'reference service'
p22
>>>>>>> parent of 84a73b9... Changed to a many to many relationship
sg18
S'INTEGER REFERENCES service (id) ON DELETE CASCADE'
=======
S'type'
p22
S'string'
>>>>>>> 84a73b9... Changed to a many to many relationship
p23
sS'sortable'
p24
I2
sS'sql'
p25
S'CHAR(512)'
p26
ssS'emergency_medical_services'
p27
(dp28
g4
I3
sg5
g11
sg7
S'CHAR(1)'
p29
ssS'id'
p30
(dp31
g22
S'id'
p32
sg24
I1
sg25
S'INTEGER PRIMARY KEY AUTOINCREMENT'
p33
ss.