(dp1
S'service_id'
p2
(dp3
S'type'
p4
S'reference services'
p5
sS'sortable'
p6
I2
sS'sql'
p7
S'INTEGER REFERENCES services (id) ON DELETE CASCADE'
p8
ssS'id'
p9
(dp10
g4
g9
sg6
I1
sg7
S'INTEGER PRIMARY KEY AUTOINCREMENT'
p11
ssS'clinic_id'
p12
(dp13
g4
S'reference clinics'
p14
sg6
I3
sg7
S'INTEGER REFERENCES clinics (id) ON DELETE CASCADE'
p15
ss.