(dp1
S'output'
p2
S"<type 'exceptions.AttributeError'> 'DAL' object has no attribute 'clinic'"
p3
sS'layer'
p4
S'/Applications/web2py.app/Contents/Resources/applications/183_Project/models/providers.py'
p5
sS'code'
p6
S"# coding: utf8\n\ndb.define_table('clinics',\n    Field('name', 'string', required=True),\n    Field('image', 'upload'),\n    Field('email', 'string'),\n    Field('phone', 'string'),\n    Field('address', 'string'),\n    Field('description', 'text'),\n    format='%(name)s'\n    )\n    \ndb.clinic.email.requires = IS_EMAIL()\ndb.clinic.phone.requires = IS_SLUG(maxlen=12, check=True, error_message='Must be valid phone number (of form xxx-xxx-xxxx)')\n"
p7
sS'snapshot'
p8
(dp9
S'exception'
p10
(dp11
S'__hash__'
p12
S"<method-wrapper '__hash__' of exceptions.AttributeError object at 0xa0da5d0>"
p13
sS'__setattr__'
p14
S"<method-wrapper '__setattr__' of exceptions.AttributeError object at 0xa0da5d0>"
p15
sS'__reduce_ex__'
p16
S'<built-in method __reduce_ex__ of exceptions.AttributeError object at 0xa0da5d0>'
p17
sS'__getslice__'
p18
S"<method-wrapper '__getslice__' of exceptions.AttributeError object at 0xa0da5d0>"
p19
sS'__getitem__'
p20
S"<method-wrapper '__getitem__' of exceptions.AttributeError object at 0xa0da5d0>"
p21
sS'__setstate__'
p22
S'<built-in method __setstate__ of exceptions.AttributeError object at 0xa0da5d0>'
p23
sS'__reduce__'
p24
S'<built-in method __reduce__ of exceptions.AttributeError object at 0xa0da5d0>'
p25
sS'__str__'
p26
S"<method-wrapper '__str__' of exceptions.AttributeError object at 0xa0da5d0>"
p27
sS'args'
p28
S'("\'DAL\' object has no attribute \'clinic\'",)'
p29
sS'__getattribute__'
p30
S"<method-wrapper '__getattribute__' of exceptions.AttributeError object at 0xa0da5d0>"
p31
sS'__class__'
p32
S"<type 'exceptions.AttributeError'>"
p33
sS'__delattr__'
p34
S"<method-wrapper '__delattr__' of exceptions.AttributeError object at 0xa0da5d0>"
p35
sS'__repr__'
p36
S"<method-wrapper '__repr__' of exceptions.AttributeError object at 0xa0da5d0>"
p37
sS'__dict__'
p38
S'{}'
p39
sS'__doc__'
p40
S"'Attribute not found.'"
p41
sS'__init__'
p42
S"<method-wrapper '__init__' of exceptions.AttributeError object at 0xa0da5d0>"
p43
sS'__new__'
p44
S'<built-in method __new__ of type object at 0x24f94a0>'
p45
ssS'evalue'
p46
S"'DAL' object has no attribute 'clinic'"
p47
sS'request'
p48
ccopy_reg
_reconstructor
p49
(cgluon.html
BEAUTIFY
p50
c__builtin__
object
p51
NtRp52
(dp53
S'attributes'
p54
(dp55
sS'components'
p56
(lp57
g49
(cgluon.html
TABLE
p58
g51
NtRp59
(dp60
g54
(dp61
S'level'
p62
I5
ssS'parent'
p63
Nsg56
(lp64
g49
(cgluon.html
TR
p65
g51
NtRp66
(dp67
g54
(dp68
sg63
g59
sg56
(lp69
g49
(cgluon.html
TD
p70
g51
NtRp71
(dp72
g54
(dp73
S'_style'
p74
S'font-weight:bold;vertical-align:top'
p75
ssg63
g66
sg56
(lp76
S'ajax'
p77
asbag49
(g70
g51
NtRp78
(dp79
g54
(dp80
S'_valign'
p81
S'top'
p82
ssg63
g66
sg56
(lp83
S':'
asbag49
(g70
g51
NtRp84
(dp85
g54
(dp86
sg63
g66
sg56
(lp87
g49
(g50
g51
NtRp88
(dp89
g54
(dp90
g62
I5
ssg63
g84
sg56
(lp91
S'False'
p92
asbasbasbag49
(g65
g51
NtRp93
(dp94
g54
(dp95
sg63
g59
sg56
(lp96
g49
(g70
g51
NtRp97
(dp98
g54
(dp99
g74
g75
ssg63
g93
sg56
(lp100
S'application'
p101
asbag49
(g70
g51
NtRp102
(dp103
g54
(dp104
g81
g82
ssg63
g93
sg56
(lp105
S':'
asbag49
(g70
g51
NtRp106
(dp107
g54
(dp108
sg63
g93
sg56
(lp109
g49
(g50
g51
NtRp110
(dp111
g54
(dp112
g62
I5
ssg63
g106
sg56
(lp113
S'183_Project'
p114
asbasbasbag49
(g65
g51
NtRp115
(dp116
g54
(dp117
sg63
g59
sg56
(lp118
g49
(g70
g51
NtRp119
(dp120
g54
(dp121
g74
g75
ssg63
g115
sg56
(lp122
g28
asbag49
(g70
g51
NtRp123
(dp124
g54
(dp125
g81
g82
ssg63
g115
sg56
(lp126
S':'
asbag49
(g70
g51
NtRp127
(dp128
g54
(dp129
sg63
g115
sg56
(lp130
g49
(g50
g51
NtRp131
(dp132
g54
(dp133
g62
I5
ssg63
g127
sg56
(lp134
g49
(g58
g51
NtRp135
(dp136
g54
(dp137
g62
I4
ssg63
Nsg56
(lp138
sbasbasbasbag49
(g65
g51
NtRp139
(dp140
g54
(dp141
sg63
g59
sg56
(lp142
g49
(g70
g51
NtRp143
(dp144
g54
(dp145
g74
g75
ssg63
g139
sg56
(lp146
S'body'
p147
asbag49
(g70
g51
NtRp148
(dp149
g54
(dp150
g81
g82
ssg63
g139
sg56
(lp151
S':'
asbag49
(g70
g51
NtRp152
(dp153
g54
(dp154
sg63
g139
sg56
(lp155
g49
(g50
g51
NtRp156
(dp157
g54
(dp158
g62
I5
ssg63
g152
sg56
(lp159
S'<cStringIO.StringO object at 0xa448f80>'
p160
asbasbasbag49
(g65
g51
NtRp161
(dp162
g54
(dp163
sg63
g59
sg56
(lp164
g49
(g70
g51
NtRp165
(dp166
g54
(dp167
g74
g75
ssg63
g161
sg56
(lp168
S'cid'
p169
asbag49
(g70
g51
NtRp170
(dp171
g54
(dp172
g81
g82
ssg63
g161
sg56
(lp173
S':'
asbag49
(g70
g51
NtRp174
(dp175
g54
(dp176
sg63
g161
sg56
(lp177
g49
(g50
g51
NtRp178
(dp179
g54
(dp180
g62
I5
ssg63
g174
sg56
(lp181
S'None'
p182
asbasbasbag49
(g65
g51
NtRp183
(dp184
g54
(dp185
sg63
g59
sg56
(lp186
g49
(g70
g51
NtRp187
(dp188
g54
(dp189
g74
g75
ssg63
g183
sg56
(lp190
S'client'
p191
asbag49
(g70
g51
NtRp192
(dp193
g54
(dp194
g81
g82
ssg63
g183
sg56
(lp195
S':'
asbag49
(g70
g51
NtRp196
(dp197
g54
(dp198
sg63
g183
sg56
(lp199
g49
(g50
g51
NtRp200
(dp201
g54
(dp202
g62
I5
ssg63
g196
sg56
(lp203
S'127.0.0.1'
p204
asbasbasbag49
(g65
g51
NtRp205
(dp206
g54
(dp207
sg63
g59
sg56
(lp208
g49
(g70
g51
NtRp209
(dp210
g54
(dp211
g74
g75
ssg63
g205
sg56
(lp212
S'controller'
p213
asbag49
(g70
g51
NtRp214
(dp215
g54
(dp216
g81
g82
ssg63
g205
sg56
(lp217
S':'
asbag49
(g70
g51
NtRp218
(dp219
g54
(dp220
sg63
g205
sg56
(lp221
g49
(g50
g51
NtRp222
(dp223
g54
(dp224
g62
I5
ssg63
g218
sg56
(lp225
S'default'
p226
asbasbasbag49
(g65
g51
NtRp227
(dp228
g54
(dp229
sg63
g59
sg56
(lp230
g49
(g70
g51
NtRp231
(dp232
g54
(dp233
g74
g75
ssg63
g227
sg56
(lp234
S'cookies'
p235
asbag49
(g70
g51
NtRp236
(dp237
g54
(dp238
g81
g82
ssg63
g227
sg56
(lp239
S':'
asbag49
(g70
g51
NtRp240
(dp241
g54
(dp242
sg63
g227
sg56
(lp243
g49
(g50
g51
NtRp244
(dp245
g54
(dp246
g62
I5
ssg63
g240
sg56
(lp247
g49
(g58
g51
NtRp248
(dp249
g54
(dp250
g62
I4
ssg63
Nsg56
(lp251
g49
(g65
g51
NtRp252
(dp253
g54
(dp254
sg63
g248
sg56
(lp255
g49
(g70
g51
NtRp256
(dp257
g54
(dp258
g74
g75
ssg63
g252
sg56
(lp259
S'session_id_admin'
p260
asbag49
(g70
g51
NtRp261
(dp262
g54
(dp263
g81
g82
ssg63
g252
sg56
(lp264
S':'
asbag49
(g70
g51
NtRp265
(dp266
g54
(dp267
sg63
g252
sg56
(lp268
g49
(g50
g51
NtRp269
(dp270
g54
(dp271
g62
I4
ssg63
g265
sg56
(lp272
S'127.0.0.1-50f7bc6a-5dd0-46a8-ad8a-54e99554f427'
p273
ag49
(g58
g51
NtRp274
(dp275
g54
(dp276
g62
I3
ssg63
Nsg56
(lp277
g49
(g65
g51
NtRp278
(dp279
g54
(dp280
sg63
g274
sg56
(lp281
g49
(g70
g51
NtRp282
(dp283
g54
(dp284
g74
g75
ssg63
g278
sg56
(lp285
S'comment'
p286
asbag49
(g70
g51
NtRp287
(dp288
g54
(dp289
g81
g82
ssg63
g278
sg56
(lp290
S':'
asbag49
(g70
g51
NtRp291
(dp292
g54
(dp293
sg63
g278
sg56
(lp294
g49
(g50
g51
NtRp295
(dp296
g54
(dp297
g62
I3
ssg63
g291
sg56
(lp298
S''
asbasbasbag49
(g65
g51
NtRp299
(dp300
g54
(dp301
sg63
g274
sg56
(lp302
g49
(g70
g51
NtRp303
(dp304
g54
(dp305
g74
g75
ssg63
g299
sg56
(lp306
S'domain'
p307
asbag49
(g70
g51
NtRp308
(dp309
g54
(dp310
g81
g82
ssg63
g299
sg56
(lp311
S':'
asbag49
(g70
g51
NtRp312
(dp313
g54
(dp314
sg63
g299
sg56
(lp315
g49
(g50
g51
NtRp316
(dp317
g54
(dp318
g62
I3
ssg63
g312
sg56
(lp319
S''
asbasbasbag49
(g65
g51
NtRp320
(dp321
g54
(dp322
sg63
g274
sg56
(lp323
g49
(g70
g51
NtRp324
(dp325
g54
(dp326
g74
g75
ssg63
g320
sg56
(lp327
S'expires'
p328
asbag49
(g70
g51
NtRp329
(dp330
g54
(dp331
g81
g82
ssg63
g320
sg56
(lp332
S':'
asbag49
(g70
g51
NtRp333
(dp334
g54
(dp335
sg63
g320
sg56
(lp336
g49
(g50
g51
NtRp337
(dp338
g54
(dp339
g62
I3
ssg63
g333
sg56
(lp340
S''
asbasbasbag49
(g65
g51
NtRp341
(dp342
g54
(dp343
sg63
g274
sg56
(lp344
g49
(g70
g51
NtRp345
(dp346
g54
(dp347
g74
g75
ssg63
g341
sg56
(lp348
S'max-age'
p349
asbag49
(g70
g51
NtRp350
(dp351
g54
(dp352
g81
g82
ssg63
g341
sg56
(lp353
S':'
asbag49
(g70
g51
NtRp354
(dp355
g54
(dp356
sg63
g341
sg56
(lp357
g49
(g50
g51
NtRp358
(dp359
g54
(dp360
g62
I3
ssg63
g354
sg56
(lp361
S''
asbasbasbag49
(g65
g51
NtRp362
(dp363
g54
(dp364
sg63
g274
sg56
(lp365
g49
(g70
g51
NtRp366
(dp367
g54
(dp368
g74
g75
ssg63
g362
sg56
(lp369
S'path'
p370
asbag49
(g70
g51
NtRp371
(dp372
g54
(dp373
g81
g82
ssg63
g362
sg56
(lp374
S':'
asbag49
(g70
g51
NtRp375
(dp376
g54
(dp377
sg63
g362
sg56
(lp378
g49
(g50
g51
NtRp379
(dp380
g54
(dp381
g62
I3
ssg63
g375
sg56
(lp382
S''
asbasbasbag49
(g65
g51
NtRp383
(dp384
g54
(dp385
sg63
g274
sg56
(lp386
g49
(g70
g51
NtRp387
(dp388
g54
(dp389
g74
g75
ssg63
g383
sg56
(lp390
S'secure'
p391
asbag49
(g70
g51
NtRp392
(dp393
g54
(dp394
g81
g82
ssg63
g383
sg56
(lp395
S':'
asbag49
(g70
g51
NtRp396
(dp397
g54
(dp398
sg63
g383
sg56
(lp399
g49
(g50
g51
NtRp400
(dp401
g54
(dp402
g62
I3
ssg63
g396
sg56
(lp403
S''
asbasbasbag49
(g65
g51
NtRp404
(dp405
g54
(dp406
sg63
g274
sg56
(lp407
g49
(g70
g51
NtRp408
(dp409
g54
(dp410
g74
g75
ssg63
g404
sg56
(lp411
S'version'
p412
asbag49
(g70
g51
NtRp413
(dp414
g54
(dp415
g81
g82
ssg63
g404
sg56
(lp416
S':'
asbag49
(g70
g51
NtRp417
(dp418
g54
(dp419
sg63
g404
sg56
(lp420
g49
(g50
g51
NtRp421
(dp422
g54
(dp423
g62
I3
ssg63
g417
sg56
(lp424
S''
asbasbasbasbasbasbasbag49
(g65
g51
NtRp425
(dp426
g54
(dp427
sg63
g248
sg56
(lp428
g49
(g70
g51
NtRp429
(dp430
g54
(dp431
g74
g75
ssg63
g425
sg56
(lp432
S'session_id_hw1'
p433
asbag49
(g70
g51
NtRp434
(dp435
g54
(dp436
g81
g82
ssg63
g425
sg56
(lp437
S':'
asbag49
(g70
g51
NtRp438
(dp439
g54
(dp440
sg63
g425
sg56
(lp441
g49
(g50
g51
NtRp442
(dp443
g54
(dp444
g62
I4
ssg63
g438
sg56
(lp445
S'127.0.0.1-c1ab893d-5a98-4c2d-b248-26b8a25ad648'
p446
ag49
(g58
g51
NtRp447
(dp448
g54
(dp449
g62
I3
ssg63
Nsg56
(lp450
g49
(g65
g51
NtRp451
(dp452
g54
(dp453
sg63
g447
sg56
(lp454
g49
(g70
g51
NtRp455
(dp456
g54
(dp457
g74
g75
ssg63
g451
sg56
(lp458
g286
asbag49
(g70
g51
NtRp459
(dp460
g54
(dp461
g81
g82
ssg63
g451
sg56
(lp462
S':'
asbag49
(g70
g51
NtRp463
(dp464
g54
(dp465
sg63
g451
sg56
(lp466
g49
(g50
g51
NtRp467
(dp468
g54
(dp469
g62
I3
ssg63
g463
sg56
(lp470
S''
asbasbasbag49
(g65
g51
NtRp471
(dp472
g54
(dp473
sg63
g447
sg56
(lp474
g49
(g70
g51
NtRp475
(dp476
g54
(dp477
g74
g75
ssg63
g471
sg56
(lp478
g307
asbag49
(g70
g51
NtRp479
(dp480
g54
(dp481
g81
g82
ssg63
g471
sg56
(lp482
S':'
asbag49
(g70
g51
NtRp483
(dp484
g54
(dp485
sg63
g471
sg56
(lp486
g49
(g50
g51
NtRp487
(dp488
g54
(dp489
g62
I3
ssg63
g483
sg56
(lp490
S''
asbasbasbag49
(g65
g51
NtRp491
(dp492
g54
(dp493
sg63
g447
sg56
(lp494
g49
(g70
g51
NtRp495
(dp496
g54
(dp497
g74
g75
ssg63
g491
sg56
(lp498
g328
asbag49
(g70
g51
NtRp499
(dp500
g54
(dp501
g81
g82
ssg63
g491
sg56
(lp502
S':'
asbag49
(g70
g51
NtRp503
(dp504
g54
(dp505
sg63
g491
sg56
(lp506
g49
(g50
g51
NtRp507
(dp508
g54
(dp509
g62
I3
ssg63
g503
sg56
(lp510
S''
asbasbasbag49
(g65
g51
NtRp511
(dp512
g54
(dp513
sg63
g447
sg56
(lp514
g49
(g70
g51
NtRp515
(dp516
g54
(dp517
g74
g75
ssg63
g511
sg56
(lp518
g349
asbag49
(g70
g51
NtRp519
(dp520
g54
(dp521
g81
g82
ssg63
g511
sg56
(lp522
S':'
asbag49
(g70
g51
NtRp523
(dp524
g54
(dp525
sg63
g511
sg56
(lp526
g49
(g50
g51
NtRp527
(dp528
g54
(dp529
g62
I3
ssg63
g523
sg56
(lp530
S''
asbasbasbag49
(g65
g51
NtRp531
(dp532
g54
(dp533
sg63
g447
sg56
(lp534
g49
(g70
g51
NtRp535
(dp536
g54
(dp537
g74
g75
ssg63
g531
sg56
(lp538
g370
asbag49
(g70
g51
NtRp539
(dp540
g54
(dp541
g81
g82
ssg63
g531
sg56
(lp542
S':'
asbag49
(g70
g51
NtRp543
(dp544
g54
(dp545
sg63
g531
sg56
(lp546
g49
(g50
g51
NtRp547
(dp548
g54
(dp549
g62
I3
ssg63
g543
sg56
(lp550
S''
asbasbasbag49
(g65
g51
NtRp551
(dp552
g54
(dp553
sg63
g447
sg56
(lp554
g49
(g70
g51
NtRp555
(dp556
g54
(dp557
g74
g75
ssg63
g551
sg56
(lp558
g391
asbag49
(g70
g51
NtRp559
(dp560
g54
(dp561
g81
g82
ssg63
g551
sg56
(lp562
S':'
asbag49
(g70
g51
NtRp563
(dp564
g54
(dp565
sg63
g551
sg56
(lp566
g49
(g50
g51
NtRp567
(dp568
g54
(dp569
g62
I3
ssg63
g563
sg56
(lp570
S''
asbasbasbag49
(g65
g51
NtRp571
(dp572
g54
(dp573
sg63
g447
sg56
(lp574
g49
(g70
g51
NtRp575
(dp576
g54
(dp577
g74
g75
ssg63
g571
sg56
(lp578
g412
asbag49
(g70
g51
NtRp579
(dp580
g54
(dp581
g81
g82
ssg63
g571
sg56
(lp582
S':'
asbag49
(g70
g51
NtRp583
(dp584
g54
(dp585
sg63
g571
sg56
(lp586
g49
(g50
g51
NtRp587
(dp588
g54
(dp589
g62
I3
ssg63
g583
sg56
(lp590
S''
asbasbasbasbasbasbasbag49
(g65
g51
NtRp591
(dp592
g54
(dp593
sg63
g248
sg56
(lp594
g49
(g70
g51
NtRp595
(dp596
g54
(dp597
g74
g75
ssg63
g591
sg56
(lp598
S'session_id_project'
p599
asbag49
(g70
g51
NtRp600
(dp601
g54
(dp602
g81
g82
ssg63
g591
sg56
(lp603
S':'
asbag49
(g70
g51
NtRp604
(dp605
g54
(dp606
sg63
g591
sg56
(lp607
g49
(g50
g51
NtRp608
(dp609
g54
(dp610
g62
I4
ssg63
g604
sg56
(lp611
S'127.0.0.1-5e79944d-406f-43cf-b132-a365dfc2f67c'
p612
ag49
(g58
g51
NtRp613
(dp614
g54
(dp615
g62
I3
ssg63
Nsg56
(lp616
g49
(g65
g51
NtRp617
(dp618
g54
(dp619
sg63
g613
sg56
(lp620
g49
(g70
g51
NtRp621
(dp622
g54
(dp623
g74
g75
ssg63
g617
sg56
(lp624
g286
asbag49
(g70
g51
NtRp625
(dp626
g54
(dp627
g81
g82
ssg63
g617
sg56
(lp628
S':'
asbag49
(g70
g51
NtRp629
(dp630
g54
(dp631
sg63
g617
sg56
(lp632
g49
(g50
g51
NtRp633
(dp634
g54
(dp635
g62
I3
ssg63
g629
sg56
(lp636
S''
asbasbasbag49
(g65
g51
NtRp637
(dp638
g54
(dp639
sg63
g613
sg56
(lp640
g49
(g70
g51
NtRp641
(dp642
g54
(dp643
g74
g75
ssg63
g637
sg56
(lp644
g307
asbag49
(g70
g51
NtRp645
(dp646
g54
(dp647
g81
g82
ssg63
g637
sg56
(lp648
S':'
asbag49
(g70
g51
NtRp649
(dp650
g54
(dp651
sg63
g637
sg56
(lp652
g49
(g50
g51
NtRp653
(dp654
g54
(dp655
g62
I3
ssg63
g649
sg56
(lp656
S''
asbasbasbag49
(g65
g51
NtRp657
(dp658
g54
(dp659
sg63
g613
sg56
(lp660
g49
(g70
g51
NtRp661
(dp662
g54
(dp663
g74
g75
ssg63
g657
sg56
(lp664
g328
asbag49
(g70
g51
NtRp665
(dp666
g54
(dp667
g81
g82
ssg63
g657
sg56
(lp668
S':'
asbag49
(g70
g51
NtRp669
(dp670
g54
(dp671
sg63
g657
sg56
(lp672
g49
(g50
g51
NtRp673
(dp674
g54
(dp675
g62
I3
ssg63
g669
sg56
(lp676
S''
asbasbasbag49
(g65
g51
NtRp677
(dp678
g54
(dp679
sg63
g613
sg56
(lp680
g49
(g70
g51
NtRp681
(dp682
g54
(dp683
g74
g75
ssg63
g677
sg56
(lp684
g349
asbag49
(g70
g51
NtRp685
(dp686
g54
(dp687
g81
g82
ssg63
g677
sg56
(lp688
S':'
asbag49
(g70
g51
NtRp689
(dp690
g54
(dp691
sg63
g677
sg56
(lp692
g49
(g50
g51
NtRp693
(dp694
g54
(dp695
g62
I3
ssg63
g689
sg56
(lp696
S''
asbasbasbag49
(g65
g51
NtRp697
(dp698
g54
(dp699
sg63
g613
sg56
(lp700
g49
(g70
g51
NtRp701
(dp702
g54
(dp703
g74
g75
ssg63
g697
sg56
(lp704
g370
asbag49
(g70
g51
NtRp705
(dp706
g54
(dp707
g81
g82
ssg63
g697
sg56
(lp708
S':'
asbag49
(g70
g51
NtRp709
(dp710
g54
(dp711
sg63
g697
sg56
(lp712
g49
(g50
g51
NtRp713
(dp714
g54
(dp715
g62
I3
ssg63
g709
sg56
(lp716
S''
asbasbasbag49
(g65
g51
NtRp717
(dp718
g54
(dp719
sg63
g613
sg56
(lp720
g49
(g70
g51
NtRp721
(dp722
g54
(dp723
g74
g75
ssg63
g717
sg56
(lp724
g391
asbag49
(g70
g51
NtRp725
(dp726
g54
(dp727
g81
g82
ssg63
g717
sg56
(lp728
S':'
asbag49
(g70
g51
NtRp729
(dp730
g54
(dp731
sg63
g717
sg56
(lp732
g49
(g50
g51
NtRp733
(dp734
g54
(dp735
g62
I3
ssg63
g729
sg56
(lp736
S''
asbasbasbag49
(g65
g51
NtRp737
(dp738
g54
(dp739
sg63
g613
sg56
(lp740
g49
(g70
g51
NtRp741
(dp742
g54
(dp743
g74
g75
ssg63
g737
sg56
(lp744
g412
asbag49
(g70
g51
NtRp745
(dp746
g54
(dp747
g81
g82
ssg63
g737
sg56
(lp748
S':'
asbag49
(g70
g51
NtRp749
(dp750
g54
(dp751
sg63
g737
sg56
(lp752
g49
(g50
g51
NtRp753
(dp754
g54
(dp755
g62
I3
ssg63
g749
sg56
(lp756
S''
asbasbasbasbasbasbasbag49
(g65
g51
NtRp757
(dp758
g54
(dp759
sg63
g248
sg56
(lp760
g49
(g70
g51
NtRp761
(dp762
g54
(dp763
g74
g75
ssg63
g757
sg56
(lp764
S'session_id_welcome'
p765
asbag49
(g70
g51
NtRp766
(dp767
g54
(dp768
g81
g82
ssg63
g757
sg56
(lp769
S':'
asbag49
(g70
g51
NtRp770
(dp771
g54
(dp772
sg63
g757
sg56
(lp773
g49
(g50
g51
NtRp774
(dp775
g54
(dp776
g62
I4
ssg63
g770
sg56
(lp777
S'127.0.0.1-7974756f-c4aa-4df6-9174-0fcad796dda3'
p778
ag49
(g58
g51
NtRp779
(dp780
g54
(dp781
g62
I3
ssg63
Nsg56
(lp782
g49
(g65
g51
NtRp783
(dp784
g54
(dp785
sg63
g779
sg56
(lp786
g49
(g70
g51
NtRp787
(dp788
g54
(dp789
g74
g75
ssg63
g783
sg56
(lp790
g286
asbag49
(g70
g51
NtRp791
(dp792
g54
(dp793
g81
g82
ssg63
g783
sg56
(lp794
S':'
asbag49
(g70
g51
NtRp795
(dp796
g54
(dp797
sg63
g783
sg56
(lp798
g49
(g50
g51
NtRp799
(dp800
g54
(dp801
g62
I3
ssg63
g795
sg56
(lp802
S''
asbasbasbag49
(g65
g51
NtRp803
(dp804
g54
(dp805
sg63
g779
sg56
(lp806
g49
(g70
g51
NtRp807
(dp808
g54
(dp809
g74
g75
ssg63
g803
sg56
(lp810
g307
asbag49
(g70
g51
NtRp811
(dp812
g54
(dp813
g81
g82
ssg63
g803
sg56
(lp814
S':'
asbag49
(g70
g51
NtRp815
(dp816
g54
(dp817
sg63
g803
sg56
(lp818
g49
(g50
g51
NtRp819
(dp820
g54
(dp821
g62
I3
ssg63
g815
sg56
(lp822
S''
asbasbasbag49
(g65
g51
NtRp823
(dp824
g54
(dp825
sg63
g779
sg56
(lp826
g49
(g70
g51
NtRp827
(dp828
g54
(dp829
g74
g75
ssg63
g823
sg56
(lp830
g328
asbag49
(g70
g51
NtRp831
(dp832
g54
(dp833
g81
g82
ssg63
g823
sg56
(lp834
S':'
asbag49
(g70
g51
NtRp835
(dp836
g54
(dp837
sg63
g823
sg56
(lp838
g49
(g50
g51
NtRp839
(dp840
g54
(dp841
g62
I3
ssg63
g835
sg56
(lp842
S''
asbasbasbag49
(g65
g51
NtRp843
(dp844
g54
(dp845
sg63
g779
sg56
(lp846
g49
(g70
g51
NtRp847
(dp848
g54
(dp849
g74
g75
ssg63
g843
sg56
(lp850
g349
asbag49
(g70
g51
NtRp851
(dp852
g54
(dp853
g81
g82
ssg63
g843
sg56
(lp854
S':'
asbag49
(g70
g51
NtRp855
(dp856
g54
(dp857
sg63
g843
sg56
(lp858
g49
(g50
g51
NtRp859
(dp860
g54
(dp861
g62
I3
ssg63
g855
sg56
(lp862
S''
asbasbasbag49
(g65
g51
NtRp863
(dp864
g54
(dp865
sg63
g779
sg56
(lp866
g49
(g70
g51
NtRp867
(dp868
g54
(dp869
g74
g75
ssg63
g863
sg56
(lp870
g370
asbag49
(g70
g51
NtRp871
(dp872
g54
(dp873
g81
g82
ssg63
g863
sg56
(lp874
S':'
asbag49
(g70
g51
NtRp875
(dp876
g54
(dp877
sg63
g863
sg56
(lp878
g49
(g50
g51
NtRp879
(dp880
g54
(dp881
g62
I3
ssg63
g875
sg56
(lp882
S''
asbasbasbag49
(g65
g51
NtRp883
(dp884
g54
(dp885
sg63
g779
sg56
(lp886
g49
(g70
g51
NtRp887
(dp888
g54
(dp889
g74
g75
ssg63
g883
sg56
(lp890
g391
asbag49
(g70
g51
NtRp891
(dp892
g54
(dp893
g81
g82
ssg63
g883
sg56
(lp894
S':'
asbag49
(g70
g51
NtRp895
(dp896
g54
(dp897
sg63
g883
sg56
(lp898
g49
(g50
g51
NtRp899
(dp900
g54
(dp901
g62
I3
ssg63
g895
sg56
(lp902
S''
asbasbasbag49
(g65
g51
NtRp903
(dp904
g54
(dp905
sg63
g779
sg56
(lp906
g49
(g70
g51
NtRp907
(dp908
g54
(dp909
g74
g75
ssg63
g903
sg56
(lp910
g412
asbag49
(g70
g51
NtRp911
(dp912
g54
(dp913
g81
g82
ssg63
g903
sg56
(lp914
S':'
asbag49
(g70
g51
NtRp915
(dp916
g54
(dp917
sg63
g903
sg56
(lp918
g49
(g50
g51
NtRp919
(dp920
g54
(dp921
g62
I3
ssg63
g915
sg56
(lp922
S''
asbasbasbasbasbasbasbasbasbasbasbag49
(g65
g51
NtRp923
(dp924
g54
(dp925
sg63
g59
sg56
(lp926
g49
(g70
g51
NtRp927
(dp928
g54
(dp929
g74
g75
ssg63
g923
sg56
(lp930
S'env'
p931
asbag49
(g70
g51
NtRp932
(dp933
g54
(dp934
g81
g82
ssg63
g923
sg56
(lp935
S':'
asbag49
(g70
g51
NtRp936
(dp937
g54
(dp938
sg63
g923
sg56
(lp939
g49
(g50
g51
NtRp940
(dp941
g54
(dp942
g62
I5
ssg63
g936
sg56
(lp943
g49
(g58
g51
NtRp944
(dp945
g54
(dp946
g62
I4
ssg63
Nsg56
(lp947
g49
(g65
g51
NtRp948
(dp949
g54
(dp950
sg63
g944
sg56
(lp951
g49
(g70
g51
NtRp952
(dp953
g54
(dp954
g74
g75
ssg63
g948
sg56
(lp955
S'app_folders'
p956
asbag49
(g70
g51
NtRp957
(dp958
g54
(dp959
g81
g82
ssg63
g948
sg56
(lp960
S':'
asbag49
(g70
g51
NtRp961
(dp962
g54
(dp963
sg63
g948
sg56
(lp964
g49
(g50
g51
NtRp965
(dp966
g54
(dp967
g62
I4
ssg63
g961
sg56
(lp968
S"set(['/Applications/web2py.app/Contents/Resources/applications/Project/', '/Applications/web2py.app/Contents/Resources/applications/hw2/', '/Applications/web2py.app/Contents/Resources/applications/admin/', '/Applications/web2py.app/Contents/Resources/applications/welcome/', '/Applications/web2py.app/Contents/Resources/applications/183_Project/'])"
p969
asbasbasbag49
(g65
g51
NtRp970
(dp971
g54
(dp972
sg63
g944
sg56
(lp973
g49
(g70
g51
NtRp974
(dp975
g54
(dp976
g74
g75
ssg63
g970
sg56
(lp977
S'applications_parent'
p978
asbag49
(g70
g51
NtRp979
(dp980
g54
(dp981
g81
g82
ssg63
g970
sg56
(lp982
S':'
asbag49
(g70
g51
NtRp983
(dp984
g54
(dp985
sg63
g970
sg56
(lp986
g49
(g50
g51
NtRp987
(dp988
g54
(dp989
g62
I4
ssg63
g983
sg56
(lp990
S'/Applications/web2py.app/Contents/Resources'
p991
asbasbasbag49
(g65
g51
NtRp992
(dp993
g54
(dp994
sg63
g944
sg56
(lp995
g49
(g70
g51
NtRp996
(dp997
g54
(dp998
g74
g75
ssg63
g992
sg56
(lp999
S'cmd_args'
p1000
asbag49
(g70
g51
NtRp1001
(dp1002
g54
(dp1003
g81
g82
ssg63
g992
sg56
(lp1004
S':'
asbag49
(g70
g51
NtRp1005
(dp1006
g54
(dp1007
sg63
g992
sg56
(lp1008
g49
(g50
g51
NtRp1009
(dp1010
g54
(dp1011
g62
I4
ssg63
g1005
sg56
(lp1012
g49
(g58
g51
NtRp1013
(dp1014
g54
(dp1015
g62
I3
ssg63
Nsg56
(lp1016
sbasbasbasbag49
(g65
g51
NtRp1017
(dp1018
g54
(dp1019
sg63
g944
sg56
(lp1020
g49
(g70
g51
NtRp1021
(dp1022
g54
(dp1023
g74
g75
ssg63
g1017
sg56
(lp1024
S'cmd_options'
p1025
asbag49
(g70
g51
NtRp1026
(dp1027
g54
(dp1028
g81
g82
ssg63
g1017
sg56
(lp1029
S':'
asbag49
(g70
g51
NtRp1030
(dp1031
g54
(dp1032
sg63
g1017
sg56
(lp1033
g49
(g50
g51
NtRp1034
(dp1035
g54
(dp1036
g62
I4
ssg63
g1030
sg56
(lp1037
S"<Values at 0x57f1918: {'verbose': False, 'ip': '127.0.0.1', 'with_scheduler': False, 'ips': ['10.0.0.2'], 'shutdown_timeout': 5, 'taskbar': False, 'port': 8000, 'maxthreads': None, 'softcron': False, 'server_name': 'Lukes-MacBook-Pro.local', 'bpython': False, 'nogui': False, 'nocron': False, 'extcron': False, 'run_system_tests': False, 'test': None, 'folder': '/Applications/web2py.app/Contents/Resources', 'config': '', 'import_models': False, 'winservice': '', 'shell': None, 'run': '', 'log_filename': 'httpserver.log', 'debuglevel': 30, 'args': [''], 'socket_timeout': 5, 'ssl_ca_certificate': None, 'scheduler': None, 'profiler_filename': None, 'ssl_private_key': '', 'scheduler_groups': None, 'password': '<ask>', 'request_queue_size': 5, 'ssl_certificate': '', 'cronjob': False, 'numthreads': None, 'quiet': False, 'interfaces': None, 'minthreads': None, 'timeout': 10, 'plain': False, 'nobanner': False, 'pid_filename': 'httpserver.pid'}>"
p1038
asbasbasbag49
(g65
g51
NtRp1039
(dp1040
g54
(dp1041
sg63
g944
sg56
(lp1042
g49
(g70
g51
NtRp1043
(dp1044
g54
(dp1045
g74
g75
ssg63
g1039
sg56
(lp1046
S'db_sessions'
p1047
asbag49
(g70
g51
NtRp1048
(dp1049
g54
(dp1050
g81
g82
ssg63
g1039
sg56
(lp1051
S':'
asbag49
(g70
g51
NtRp1052
(dp1053
g54
(dp1054
sg63
g1039
sg56
(lp1055
g49
(g50
g51
NtRp1056
(dp1057
g54
(dp1058
g62
I4
ssg63
g1052
sg56
(lp1059
S'set([])'
p1060
asbasbasbag49
(g65
g51
NtRp1061
(dp1062
g54
(dp1063
sg63
g944
sg56
(lp1064
g49
(g70
g51
NtRp1065
(dp1066
g54
(dp1067
g74
g75
ssg63
g1061
sg56
(lp1068
S'debugging'
p1069
asbag49
(g70
g51
NtRp1070
(dp1071
g54
(dp1072
g81
g82
ssg63
g1061
sg56
(lp1073
S':'
asbag49
(g70
g51
NtRp1074
(dp1075
g54
(dp1076
sg63
g1061
sg56
(lp1077
g49
(g50
g51
NtRp1078
(dp1079
g54
(dp1080
g62
I4
ssg63
g1074
sg56
(lp1081
g92
asbasbasbag49
(g65
g51
NtRp1082
(dp1083
g54
(dp1084
sg63
g944
sg56
(lp1085
g49
(g70
g51
NtRp1086
(dp1087
g54
(dp1088
g74
g75
ssg63
g1082
sg56
(lp1089
S'gluon_parent'
p1090
asbag49
(g70
g51
NtRp1091
(dp1092
g54
(dp1093
g81
g82
ssg63
g1082
sg56
(lp1094
S':'
asbag49
(g70
g51
NtRp1095
(dp1096
g54
(dp1097
sg63
g1082
sg56
(lp1098
g49
(g50
g51
NtRp1099
(dp1100
g54
(dp1101
g62
I4
ssg63
g1095
sg56
(lp1102
S'/Applications/web2py.app/Contents/Resources'
p1103
asbasbasbag49
(g65
g51
NtRp1104
(dp1105
g54
(dp1106
sg63
g944
sg56
(lp1107
g49
(g70
g51
NtRp1108
(dp1109
g54
(dp1110
g74
g75
ssg63
g1104
sg56
(lp1111
S'http_accept'
p1112
asbag49
(g70
g51
NtRp1113
(dp1114
g54
(dp1115
g81
g82
ssg63
g1104
sg56
(lp1116
S':'
asbag49
(g70
g51
NtRp1117
(dp1118
g54
(dp1119
sg63
g1104
sg56
(lp1120
g49
(g50
g51
NtRp1121
(dp1122
g54
(dp1123
g62
I4
ssg63
g1117
sg56
(lp1124
S'text/html,application/xhtml+xml,application/xml;q=0.9,*/*;q=0.8'
p1125
asbasbasbag49
(g65
g51
NtRp1126
(dp1127
g54
(dp1128
sg63
g944
sg56
(lp1129
g49
(g70
g51
NtRp1130
(dp1131
g54
(dp1132
g74
g75
ssg63
g1126
sg56
(lp1133
S'http_accept_charset'
p1134
asbag49
(g70
g51
NtRp1135
(dp1136
g54
(dp1137
g81
g82
ssg63
g1126
sg56
(lp1138
S':'
asbag49
(g70
g51
NtRp1139
(dp1140
g54
(dp1141
sg63
g1126
sg56
(lp1142
g49
(g50
g51
NtRp1143
(dp1144
g54
(dp1145
g62
I4
ssg63
g1139
sg56
(lp1146
S'ISO-8859-1,utf-8;q=0.7,*;q=0.3'
p1147
asbasbasbag49
(g65
g51
NtRp1148
(dp1149
g54
(dp1150
sg63
g944
sg56
(lp1151
g49
(g70
g51
NtRp1152
(dp1153
g54
(dp1154
g74
g75
ssg63
g1148
sg56
(lp1155
S'http_accept_encoding'
p1156
asbag49
(g70
g51
NtRp1157
(dp1158
g54
(dp1159
g81
g82
ssg63
g1148
sg56
(lp1160
S':'
asbag49
(g70
g51
NtRp1161
(dp1162
g54
(dp1163
sg63
g1148
sg56
(lp1164
g49
(g50
g51
NtRp1165
(dp1166
g54
(dp1167
g62
I4
ssg63
g1161
sg56
(lp1168
S'gzip,deflate,sdch'
p1169
asbasbasbag49
(g65
g51
NtRp1170
(dp1171
g54
(dp1172
sg63
g944
sg56
(lp1173
g49
(g70
g51
NtRp1174
(dp1175
g54
(dp1176
g74
g75
ssg63
g1170
sg56
(lp1177
S'http_accept_language'
p1178
asbag49
(g70
g51
NtRp1179
(dp1180
g54
(dp1181
g81
g82
ssg63
g1170
sg56
(lp1182
S':'
asbag49
(g70
g51
NtRp1183
(dp1184
g54
(dp1185
sg63
g1170
sg56
(lp1186
g49
(g50
g51
NtRp1187
(dp1188
g54
(dp1189
g62
I4
ssg63
g1183
sg56
(lp1190
S'en-US,en;q=0.8'
p1191
asbasbasbag49
(g65
g51
NtRp1192
(dp1193
g54
(dp1194
sg63
g944
sg56
(lp1195
g49
(g70
g51
NtRp1196
(dp1197
g54
(dp1198
g74
g75
ssg63
g1192
sg56
(lp1199
S'http_connection'
p1200
asbag49
(g70
g51
NtRp1201
(dp1202
g54
(dp1203
g81
g82
ssg63
g1192
sg56
(lp1204
S':'
asbag49
(g70
g51
NtRp1205
(dp1206
g54
(dp1207
sg63
g1192
sg56
(lp1208
g49
(g50
g51
NtRp1209
(dp1210
g54
(dp1211
g62
I4
ssg63
g1205
sg56
(lp1212
S'keep-alive'
p1213
asbasbasbag49
(g65
g51
NtRp1214
(dp1215
g54
(dp1216
sg63
g944
sg56
(lp1217
g49
(g70
g51
NtRp1218
(dp1219
g54
(dp1220
g74
g75
ssg63
g1214
sg56
(lp1221
S'http_cookie'
p1222
asbag49
(g70
g51
NtRp1223
(dp1224
g54
(dp1225
g81
g82
ssg63
g1214
sg56
(lp1226
S':'
asbag49
(g70
g51
NtRp1227
(dp1228
g54
(dp1229
sg63
g1214
sg56
(lp1230
g49
(g50
g51
NtRp1231
(dp1232
g54
(dp1233
g62
I4
ssg63
g1227
sg56
(lp1234
S'session_id_hw1=127.0.0.1-c1ab893d-5a98-4c2d-b248-26b8a25ad648; session_id_project=127.0.0.1-5e79944d-406f-43cf-b132-a365dfc2f67c; session_id_welcome=127.0.0.1-7974756f-c4aa-4df6-9174-0fcad796dda3; session_id_admin=127.0.0.1-50f7bc6a-5dd0-46a8-ad8a-54e99554f427'
p1235
asbasbasbag49
(g65
g51
NtRp1236
(dp1237
g54
(dp1238
sg63
g944
sg56
(lp1239
g49
(g70
g51
NtRp1240
(dp1241
g54
(dp1242
g74
g75
ssg63
g1236
sg56
(lp1243
S'http_host'
p1244
asbag49
(g70
g51
NtRp1245
(dp1246
g54
(dp1247
g81
g82
ssg63
g1236
sg56
(lp1248
S':'
asbag49
(g70
g51
NtRp1249
(dp1250
g54
(dp1251
sg63
g1236
sg56
(lp1252
g49
(g50
g51
NtRp1253
(dp1254
g54
(dp1255
g62
I4
ssg63
g1249
sg56
(lp1256
S'127.0.0.1:8000'
p1257
asbasbasbag49
(g65
g51
NtRp1258
(dp1259
g54
(dp1260
sg63
g944
sg56
(lp1261
g49
(g70
g51
NtRp1262
(dp1263
g54
(dp1264
g74
g75
ssg63
g1258
sg56
(lp1265
S'http_referer'
p1266
asbag49
(g70
g51
NtRp1267
(dp1268
g54
(dp1269
g81
g82
ssg63
g1258
sg56
(lp1270
S':'
asbag49
(g70
g51
NtRp1271
(dp1272
g54
(dp1273
sg63
g1258
sg56
(lp1274
g49
(g50
g51
NtRp1275
(dp1276
g54
(dp1277
g62
I4
ssg63
g1271
sg56
(lp1278
S'http://127.0.0.1:8000/admin/default/design/183_Project'
p1279
asbasbasbag49
(g65
g51
NtRp1280
(dp1281
g54
(dp1282
sg63
g944
sg56
(lp1283
g49
(g70
g51
NtRp1284
(dp1285
g54
(dp1286
g74
g75
ssg63
g1280
sg56
(lp1287
S'http_user_agent'
p1288
asbag49
(g70
g51
NtRp1289
(dp1290
g54
(dp1291
g81
g82
ssg63
g1280
sg56
(lp1292
S':'
asbag49
(g70
g51
NtRp1293
(dp1294
g54
(dp1295
sg63
g1280
sg56
(lp1296
g49
(g50
g51
NtRp1297
(dp1298
g54
(dp1299
g62
I4
ssg63
g1293
sg56
(lp1300
S'Mozilla/5.0 (Macintosh; Intel Mac OS X 10_7_3) AppleWebKit/537.4 (KHTML, like Gecko) Chrome/22.0.1229.94 Safari/537.4'
p1301
asbasbasbag49
(g65
g51
NtRp1302
(dp1303
g54
(dp1304
sg63
g944
sg56
(lp1305
g49
(g70
g51
NtRp1306
(dp1307
g54
(dp1308
g74
g75
ssg63
g1302
sg56
(lp1309
S'is_jython'
p1310
asbag49
(g70
g51
NtRp1311
(dp1312
g54
(dp1313
g81
g82
ssg63
g1302
sg56
(lp1314
S':'
asbag49
(g70
g51
NtRp1315
(dp1316
g54
(dp1317
sg63
g1302
sg56
(lp1318
g49
(g50
g51
NtRp1319
(dp1320
g54
(dp1321
g62
I4
ssg63
g1315
sg56
(lp1322
g92
asbasbasbag49
(g65
g51
NtRp1323
(dp1324
g54
(dp1325
sg63
g944
sg56
(lp1326
g49
(g70
g51
NtRp1327
(dp1328
g54
(dp1329
g74
g75
ssg63
g1323
sg56
(lp1330
S'is_pypy'
p1331
asbag49
(g70
g51
NtRp1332
(dp1333
g54
(dp1334
g81
g82
ssg63
g1323
sg56
(lp1335
S':'
asbag49
(g70
g51
NtRp1336
(dp1337
g54
(dp1338
sg63
g1323
sg56
(lp1339
g49
(g50
g51
NtRp1340
(dp1341
g54
(dp1342
g62
I4
ssg63
g1336
sg56
(lp1343
g92
asbasbasbag49
(g65
g51
NtRp1344
(dp1345
g54
(dp1346
sg63
g944
sg56
(lp1347
g49
(g70
g51
NtRp1348
(dp1349
g54
(dp1350
g74
g75
ssg63
g1344
sg56
(lp1351
S'path_info'
p1352
asbag49
(g70
g51
NtRp1353
(dp1354
g54
(dp1355
g81
g82
ssg63
g1344
sg56
(lp1356
S':'
asbag49
(g70
g51
NtRp1357
(dp1358
g54
(dp1359
sg63
g1344
sg56
(lp1360
g49
(g50
g51
NtRp1361
(dp1362
g54
(dp1363
g62
I4
ssg63
g1357
sg56
(lp1364
S'/183_Project/default/index'
p1365
asbasbasbag49
(g65
g51
NtRp1366
(dp1367
g54
(dp1368
sg63
g944
sg56
(lp1369
g49
(g70
g51
NtRp1370
(dp1371
g54
(dp1372
g74
g75
ssg63
g1366
sg56
(lp1373
S'query_string'
p1374
asbag49
(g70
g51
NtRp1375
(dp1376
g54
(dp1377
g81
g82
ssg63
g1366
sg56
(lp1378
S':'
asbag49
(g70
g51
NtRp1379
(dp1380
g54
(dp1381
sg63
g1366
sg56
(lp1382
g49
(g50
g51
NtRp1383
(dp1384
g54
(dp1385
g62
I4
ssg63
g1379
sg56
(lp1386
S''
asbasbasbag49
(g65
g51
NtRp1387
(dp1388
g54
(dp1389
sg63
g944
sg56
(lp1390
g49
(g70
g51
NtRp1391
(dp1392
g54
(dp1393
g74
g75
ssg63
g1387
sg56
(lp1394
S'remote_addr'
p1395
asbag49
(g70
g51
NtRp1396
(dp1397
g54
(dp1398
g81
g82
ssg63
g1387
sg56
(lp1399
S':'
asbag49
(g70
g51
NtRp1400
(dp1401
g54
(dp1402
sg63
g1387
sg56
(lp1403
g49
(g50
g51
NtRp1404
(dp1405
g54
(dp1406
g62
I4
ssg63
g1400
sg56
(lp1407
g204
asbasbasbag49
(g65
g51
NtRp1408
(dp1409
g54
(dp1410
sg63
g944
sg56
(lp1411
g49
(g70
g51
NtRp1412
(dp1413
g54
(dp1414
g74
g75
ssg63
g1408
sg56
(lp1415
S'remote_port'
p1416
asbag49
(g70
g51
NtRp1417
(dp1418
g54
(dp1419
g81
g82
ssg63
g1408
sg56
(lp1420
S':'
asbag49
(g70
g51
NtRp1421
(dp1422
g54
(dp1423
sg63
g1408
sg56
(lp1424
g49
(g50
g51
NtRp1425
(dp1426
g54
(dp1427
g62
I4
ssg63
g1421
sg56
(lp1428
S'57958'
p1429
asbasbasbag49
(g65
g51
NtRp1430
(dp1431
g54
(dp1432
sg63
g944
sg56
(lp1433
g49
(g70
g51
NtRp1434
(dp1435
g54
(dp1436
g74
g75
ssg63
g1430
sg56
(lp1437
S'request_method'
p1438
asbag49
(g70
g51
NtRp1439
(dp1440
g54
(dp1441
g81
g82
ssg63
g1430
sg56
(lp1442
S':'
asbag49
(g70
g51
NtRp1443
(dp1444
g54
(dp1445
sg63
g1430
sg56
(lp1446
g49
(g50
g51
NtRp1447
(dp1448
g54
(dp1449
g62
I4
ssg63
g1443
sg56
(lp1450
S'GET'
p1451
asbasbasbag49
(g65
g51
NtRp1452
(dp1453
g54
(dp1454
sg63
g944
sg56
(lp1455
g49
(g70
g51
NtRp1456
(dp1457
g54
(dp1458
g74
g75
ssg63
g1452
sg56
(lp1459
S'request_uri'
p1460
asbag49
(g70
g51
NtRp1461
(dp1462
g54
(dp1463
g81
g82
ssg63
g1452
sg56
(lp1464
S':'
asbag49
(g70
g51
NtRp1465
(dp1466
g54
(dp1467
sg63
g1452
sg56
(lp1468
g49
(g50
g51
NtRp1469
(dp1470
g54
(dp1471
g62
I4
ssg63
g1465
sg56
(lp1472
g1365
asbasbasbag49
(g65
g51
NtRp1473
(dp1474
g54
(dp1475
sg63
g944
sg56
(lp1476
g49
(g70
g51
NtRp1477
(dp1478
g54
(dp1479
g74
g75
ssg63
g1473
sg56
(lp1480
S'script_name'
p1481
asbag49
(g70
g51
NtRp1482
(dp1483
g54
(dp1484
g81
g82
ssg63
g1473
sg56
(lp1485
S':'
asbag49
(g70
g51
NtRp1486
(dp1487
g54
(dp1488
sg63
g1473
sg56
(lp1489
g49
(g50
g51
NtRp1490
(dp1491
g54
(dp1492
g62
I4
ssg63
g1486
sg56
(lp1493
S''
asbasbasbag49
(g65
g51
NtRp1494
(dp1495
g54
(dp1496
sg63
g944
sg56
(lp1497
g49
(g70
g51
NtRp1498
(dp1499
g54
(dp1500
g74
g75
ssg63
g1494
sg56
(lp1501
S'server_name'
p1502
asbag49
(g70
g51
NtRp1503
(dp1504
g54
(dp1505
g81
g82
ssg63
g1494
sg56
(lp1506
S':'
asbag49
(g70
g51
NtRp1507
(dp1508
g54
(dp1509
sg63
g1494
sg56
(lp1510
g49
(g50
g51
NtRp1511
(dp1512
g54
(dp1513
g62
I4
ssg63
g1507
sg56
(lp1514
S'Lukes-MacBook-Pro.local'
p1515
asbasbasbag49
(g65
g51
NtRp1516
(dp1517
g54
(dp1518
sg63
g944
sg56
(lp1519
g49
(g70
g51
NtRp1520
(dp1521
g54
(dp1522
g74
g75
ssg63
g1516
sg56
(lp1523
S'server_port'
p1524
asbag49
(g70
g51
NtRp1525
(dp1526
g54
(dp1527
g81
g82
ssg63
g1516
sg56
(lp1528
S':'
asbag49
(g70
g51
NtRp1529
(dp1530
g54
(dp1531
sg63
g1516
sg56
(lp1532
g49
(g50
g51
NtRp1533
(dp1534
g54
(dp1535
g62
I4
ssg63
g1529
sg56
(lp1536
S'8000'
p1537
asbasbasbag49
(g65
g51
NtRp1538
(dp1539
g54
(dp1540
sg63
g944
sg56
(lp1541
g49
(g70
g51
NtRp1542
(dp1543
g54
(dp1544
g74
g75
ssg63
g1538
sg56
(lp1545
S'server_protocol'
p1546
asbag49
(g70
g51
NtRp1547
(dp1548
g54
(dp1549
g81
g82
ssg63
g1538
sg56
(lp1550
S':'
asbag49
(g70
g51
NtRp1551
(dp1552
g54
(dp1553
sg63
g1538
sg56
(lp1554
g49
(g50
g51
NtRp1555
(dp1556
g54
(dp1557
g62
I4
ssg63
g1551
sg56
(lp1558
S'HTTP/1.1'
p1559
asbasbasbag49
(g65
g51
NtRp1560
(dp1561
g54
(dp1562
sg63
g944
sg56
(lp1563
g49
(g70
g51
NtRp1564
(dp1565
g54
(dp1566
g74
g75
ssg63
g1560
sg56
(lp1567
S'server_software'
p1568
asbag49
(g70
g51
NtRp1569
(dp1570
g54
(dp1571
g81
g82
ssg63
g1560
sg56
(lp1572
S':'
asbag49
(g70
g51
NtRp1573
(dp1574
g54
(dp1575
sg63
g1560
sg56
(lp1576
g49
(g50
g51
NtRp1577
(dp1578
g54
(dp1579
g62
I4
ssg63
g1573
sg56
(lp1580
S'Rocket 1.2.4'
p1581
asbasbasbag49
(g65
g51
NtRp1582
(dp1583
g54
(dp1584
sg63
g944
sg56
(lp1585
g49
(g70
g51
NtRp1586
(dp1587
g54
(dp1588
g74
g75
ssg63
g1582
sg56
(lp1589
S'web2py_crontype'
p1590
asbag49
(g70
g51
NtRp1591
(dp1592
g54
(dp1593
g81
g82
ssg63
g1582
sg56
(lp1594
S':'
asbag49
(g70
g51
NtRp1595
(dp1596
g54
(dp1597
sg63
g1582
sg56
(lp1598
g49
(g50
g51
NtRp1599
(dp1600
g54
(dp1601
g62
I4
ssg63
g1595
sg56
(lp1602
S'hard'
p1603
asbasbasbag49
(g65
g51
NtRp1604
(dp1605
g54
(dp1606
sg63
g944
sg56
(lp1607
g49
(g70
g51
NtRp1608
(dp1609
g54
(dp1610
g74
g75
ssg63
g1604
sg56
(lp1611
S'web2py_path'
p1612
asbag49
(g70
g51
NtRp1613
(dp1614
g54
(dp1615
g81
g82
ssg63
g1604
sg56
(lp1616
S':'
asbag49
(g70
g51
NtRp1617
(dp1618
g54
(dp1619
sg63
g1604
sg56
(lp1620
g49
(g50
g51
NtRp1621
(dp1622
g54
(dp1623
g62
I4
ssg63
g1617
sg56
(lp1624
g991
asbasbasbag49
(g65
g51
NtRp1625
(dp1626
g54
(dp1627
sg63
g944
sg56
(lp1628
g49
(g70
g51
NtRp1629
(dp1630
g54
(dp1631
g74
g75
ssg63
g1625
sg56
(lp1632
S'web2py_version'
p1633
asbag49
(g70
g51
NtRp1634
(dp1635
g54
(dp1636
g81
g82
ssg63
g1625
sg56
(lp1637
S':'
asbag49
(g70
g51
NtRp1638
(dp1639
g54
(dp1640
sg63
g1625
sg56
(lp1641
g49
(g50
g51
NtRp1642
(dp1643
g54
(dp1644
g62
I4
ssg63
g1638
sg56
(lp1645
g49
(g58
g51
NtRp1646
(dp1647
g54
(dp1648
g62
I3
ssg63
Nsg56
(lp1649
g49
(g65
g51
NtRp1650
(dp1651
g54
(dp1652
sg63
g1646
sg56
(lp1653
g49
(g70
g51
NtRp1654
(dp1655
g54
(dp1656
sg63
g1650
sg56
(lp1657
g49
(g50
g51
NtRp1658
(dp1659
g54
(dp1660
g62
I3
ssg63
g1654
sg56
(lp1661
S'2'
asbasbasbag49
(g65
g51
NtRp1662
(dp1663
g54
(dp1664
sg63
g1646
sg56
(lp1665
g49
(g70
g51
NtRp1666
(dp1667
g54
(dp1668
sg63
g1662
sg56
(lp1669
g49
(g50
g51
NtRp1670
(dp1671
g54
(dp1672
g62
I3
ssg63
g1666
sg56
(lp1673
S'0'
asbasbasbag49
(g65
g51
NtRp1674
(dp1675
g54
(dp1676
sg63
g1646
sg56
(lp1677
g49
(g70
g51
NtRp1678
(dp1679
g54
(dp1680
sg63
g1674
sg56
(lp1681
g49
(g50
g51
NtRp1682
(dp1683
g54
(dp1684
g62
I3
ssg63
g1678
sg56
(lp1685
S'9'
asbasbasbag49
(g65
g51
NtRp1686
(dp1687
g54
(dp1688
sg63
g1646
sg56
(lp1689
g49
(g70
g51
NtRp1690
(dp1691
g54
(dp1692
sg63
g1686
sg56
(lp1693
g49
(g50
g51
NtRp1694
(dp1695
g54
(dp1696
g62
I3
ssg63
g1690
sg56
(lp1697
S'datetime.datetime(2012, 9, 13, 23, 51, 30)'
p1698
asbasbasbag49
(g65
g51
NtRp1699
(dp1700
g54
(dp1701
sg63
g1646
sg56
(lp1702
g49
(g70
g51
NtRp1703
(dp1704
g54
(dp1705
sg63
g1699
sg56
(lp1706
g49
(g50
g51
NtRp1707
(dp1708
g54
(dp1709
g62
I3
ssg63
g1703
sg56
(lp1710
S'stable'
p1711
asbasbasbasbasbasbasbag49
(g65
g51
NtRp1712
(dp1713
g54
(dp1714
sg63
g944
sg56
(lp1715
g49
(g70
g51
NtRp1716
(dp1717
g54
(dp1718
g74
g75
ssg63
g1712
sg56
(lp1719
S'wsgi_errors'
p1720
asbag49
(g70
g51
NtRp1721
(dp1722
g54
(dp1723
g81
g82
ssg63
g1712
sg56
(lp1724
S':'
asbag49
(g70
g51
NtRp1725
(dp1726
g54
(dp1727
sg63
g1712
sg56
(lp1728
g49
(g50
g51
NtRp1729
(dp1730
g54
(dp1731
g62
I4
ssg63
g1725
sg56
(lp1732
S"<open file '<stderr>', mode 'w' at 0x750b0>"
p1733
asbasbasbag49
(g65
g51
NtRp1734
(dp1735
g54
(dp1736
sg63
g944
sg56
(lp1737
g49
(g70
g51
NtRp1738
(dp1739
g54
(dp1740
g74
g75
ssg63
g1734
sg56
(lp1741
S'wsgi_file_wrapper'
p1742
asbag49
(g70
g51
NtRp1743
(dp1744
g54
(dp1745
g81
g82
ssg63
g1734
sg56
(lp1746
S':'
asbag49
(g70
g51
NtRp1747
(dp1748
g54
(dp1749
sg63
g1734
sg56
(lp1750
g49
(g50
g51
NtRp1751
(dp1752
g54
(dp1753
g62
I4
ssg63
g1747
sg56
(lp1754
S'<class wsgiref.util.FileWrapper at 0x57d00c0>'
p1755
asbasbasbag49
(g65
g51
NtRp1756
(dp1757
g54
(dp1758
sg63
g944
sg56
(lp1759
g49
(g70
g51
NtRp1760
(dp1761
g54
(dp1762
g74
g75
ssg63
g1756
sg56
(lp1763
S'wsgi_input'
p1764
asbag49
(g70
g51
NtRp1765
(dp1766
g54
(dp1767
g81
g82
ssg63
g1756
sg56
(lp1768
S':'
asbag49
(g70
g51
NtRp1769
(dp1770
g54
(dp1771
sg63
g1756
sg56
(lp1772
g49
(g50
g51
NtRp1773
(dp1774
g54
(dp1775
g62
I4
ssg63
g1769
sg56
(lp1776
S'<socket._fileobject object at 0x8efb5f0>'
p1777
asbasbasbag49
(g65
g51
NtRp1778
(dp1779
g54
(dp1780
sg63
g944
sg56
(lp1781
g49
(g70
g51
NtRp1782
(dp1783
g54
(dp1784
g74
g75
ssg63
g1778
sg56
(lp1785
S'wsgi_multiprocess'
p1786
asbag49
(g70
g51
NtRp1787
(dp1788
g54
(dp1789
g81
g82
ssg63
g1778
sg56
(lp1790
S':'
asbag49
(g70
g51
NtRp1791
(dp1792
g54
(dp1793
sg63
g1778
sg56
(lp1794
g49
(g50
g51
NtRp1795
(dp1796
g54
(dp1797
g62
I4
ssg63
g1791
sg56
(lp1798
g92
asbasbasbag49
(g65
g51
NtRp1799
(dp1800
g54
(dp1801
sg63
g944
sg56
(lp1802
g49
(g70
g51
NtRp1803
(dp1804
g54
(dp1805
g74
g75
ssg63
g1799
sg56
(lp1806
S'wsgi_multithread'
p1807
asbag49
(g70
g51
NtRp1808
(dp1809
g54
(dp1810
g81
g82
ssg63
g1799
sg56
(lp1811
S':'
asbag49
(g70
g51
NtRp1812
(dp1813
g54
(dp1814
sg63
g1799
sg56
(lp1815
g49
(g50
g51
NtRp1816
(dp1817
g54
(dp1818
g62
I4
ssg63
g1812
sg56
(lp1819
S'True'
p1820
asbasbasbag49
(g65
g51
NtRp1821
(dp1822
g54
(dp1823
sg63
g944
sg56
(lp1824
g49
(g70
g51
NtRp1825
(dp1826
g54
(dp1827
g74
g75
ssg63
g1821
sg56
(lp1828
S'wsgi_run_once'
p1829
asbag49
(g70
g51
NtRp1830
(dp1831
g54
(dp1832
g81
g82
ssg63
g1821
sg56
(lp1833
S':'
asbag49
(g70
g51
NtRp1834
(dp1835
g54
(dp1836
sg63
g1821
sg56
(lp1837
g49
(g50
g51
NtRp1838
(dp1839
g54
(dp1840
g62
I4
ssg63
g1834
sg56
(lp1841
g92
asbasbasbag49
(g65
g51
NtRp1842
(dp1843
g54
(dp1844
sg63
g944
sg56
(lp1845
g49
(g70
g51
NtRp1846
(dp1847
g54
(dp1848
g74
g75
ssg63
g1842
sg56
(lp1849
S'wsgi_url_scheme'
p1850
asbag49
(g70
g51
NtRp1851
(dp1852
g54
(dp1853
g81
g82
ssg63
g1842
sg56
(lp1854
S':'
asbag49
(g70
g51
NtRp1855
(dp1856
g54
(dp1857
sg63
g1842
sg56
(lp1858
g49
(g50
g51
NtRp1859
(dp1860
g54
(dp1861
g62
I4
ssg63
g1855
sg56
(lp1862
S'http'
p1863
asbasbasbag49
(g65
g51
NtRp1864
(dp1865
g54
(dp1866
sg63
g944
sg56
(lp1867
g49
(g70
g51
NtRp1868
(dp1869
g54
(dp1870
g74
g75
ssg63
g1864
sg56
(lp1871
S'wsgi_version'
p1872
asbag49
(g70
g51
NtRp1873
(dp1874
g54
(dp1875
g81
g82
ssg63
g1864
sg56
(lp1876
S':'
asbag49
(g70
g51
NtRp1877
(dp1878
g54
(dp1879
sg63
g1864
sg56
(lp1880
g49
(g50
g51
NtRp1881
(dp1882
g54
(dp1883
g62
I4
ssg63
g1877
sg56
(lp1884
g49
(g58
g51
NtRp1885
(dp1886
g54
(dp1887
g62
I3
ssg63
Nsg56
(lp1888
g49
(g65
g51
NtRp1889
(dp1890
g54
(dp1891
sg63
g1885
sg56
(lp1892
g49
(g70
g51
NtRp1893
(dp1894
g54
(dp1895
sg63
g1889
sg56
(lp1896
g49
(g50
g51
NtRp1897
(dp1898
g54
(dp1899
g62
I3
ssg63
g1893
sg56
(lp1900
S'1'
asbasbasbag49
(g65
g51
NtRp1901
(dp1902
g54
(dp1903
sg63
g1885
sg56
(lp1904
g49
(g70
g51
NtRp1905
(dp1906
g54
(dp1907
sg63
g1901
sg56
(lp1908
g49
(g50
g51
NtRp1909
(dp1910
g54
(dp1911
g62
I3
ssg63
g1905
sg56
(lp1912
S'0'
asbasbasbasbasbasbasbasbasbasbasbag49
(g65
g51
NtRp1913
(dp1914
g54
(dp1915
sg63
g59
sg56
(lp1916
g49
(g70
g51
NtRp1917
(dp1918
g54
(dp1919
g74
g75
ssg63
g1913
sg56
(lp1920
S'extension'
p1921
asbag49
(g70
g51
NtRp1922
(dp1923
g54
(dp1924
g81
g82
ssg63
g1913
sg56
(lp1925
S':'
asbag49
(g70
g51
NtRp1926
(dp1927
g54
(dp1928
sg63
g1913
sg56
(lp1929
g49
(g50
g51
NtRp1930
(dp1931
g54
(dp1932
g62
I5
ssg63
g1926
sg56
(lp1933
S'html'
p1934
asbasbasbag49
(g65
g51
NtRp1935
(dp1936
g54
(dp1937
sg63
g59
sg56
(lp1938
g49
(g70
g51
NtRp1939
(dp1940
g54
(dp1941
g74
g75
ssg63
g1935
sg56
(lp1942
S'folder'
p1943
asbag49
(g70
g51
NtRp1944
(dp1945
g54
(dp1946
g81
g82
ssg63
g1935
sg56
(lp1947
S':'
asbag49
(g70
g51
NtRp1948
(dp1949
g54
(dp1950
sg63
g1935
sg56
(lp1951
g49
(g50
g51
NtRp1952
(dp1953
g54
(dp1954
g62
I5
ssg63
g1948
sg56
(lp1955
S'/Applications/web2py.app/Contents/Resources/applications/183_Project/'
p1956
asbasbasbag49
(g65
g51
NtRp1957
(dp1958
g54
(dp1959
sg63
g59
sg56
(lp1960
g49
(g70
g51
NtRp1961
(dp1962
g54
(dp1963
g74
g75
ssg63
g1957
sg56
(lp1964
S'function'
p1965
asbag49
(g70
g51
NtRp1966
(dp1967
g54
(dp1968
g81
g82
ssg63
g1957
sg56
(lp1969
S':'
asbag49
(g70
g51
NtRp1970
(dp1971
g54
(dp1972
sg63
g1957
sg56
(lp1973
g49
(g50
g51
NtRp1974
(dp1975
g54
(dp1976
g62
I5
ssg63
g1970
sg56
(lp1977
S'index'
p1978
asbasbasbag49
(g65
g51
NtRp1979
(dp1980
g54
(dp1981
sg63
g59
sg56
(lp1982
g49
(g70
g51
NtRp1983
(dp1984
g54
(dp1985
g74
g75
ssg63
g1979
sg56
(lp1986
S'get_vars'
p1987
asbag49
(g70
g51
NtRp1988
(dp1989
g54
(dp1990
g81
g82
ssg63
g1979
sg56
(lp1991
S':'
asbag49
(g70
g51
NtRp1992
(dp1993
g54
(dp1994
sg63
g1979
sg56
(lp1995
g49
(g50
g51
NtRp1996
(dp1997
g54
(dp1998
g62
I5
ssg63
g1992
sg56
(lp1999
g49
(g58
g51
NtRp2000
(dp2001
g54
(dp2002
g62
I4
ssg63
Nsg56
(lp2003
sbasbasbasbag49
(g65
g51
NtRp2004
(dp2005
g54
(dp2006
sg63
g59
sg56
(lp2007
g49
(g70
g51
NtRp2008
(dp2009
g54
(dp2010
g74
g75
ssg63
g2004
sg56
(lp2011
S'global_settings'
p2012
asbag49
(g70
g51
NtRp2013
(dp2014
g54
(dp2015
g81
g82
ssg63
g2004
sg56
(lp2016
S':'
asbag49
(g70
g51
NtRp2017
(dp2018
g54
(dp2019
sg63
g2004
sg56
(lp2020
g49
(g50
g51
NtRp2021
(dp2022
g54
(dp2023
g62
I5
ssg63
g2017
sg56
(lp2024
g49
(g58
g51
NtRp2025
(dp2026
g54
(dp2027
g62
I4
ssg63
Nsg56
(lp2028
g49
(g65
g51
NtRp2029
(dp2030
g54
(dp2031
sg63
g2025
sg56
(lp2032
g49
(g70
g51
NtRp2033
(dp2034
g54
(dp2035
g74
g75
ssg63
g2029
sg56
(lp2036
g956
asbag49
(g70
g51
NtRp2037
(dp2038
g54
(dp2039
g81
g82
ssg63
g2029
sg56
(lp2040
S':'
asbag49
(g70
g51
NtRp2041
(dp2042
g54
(dp2043
sg63
g2029
sg56
(lp2044
g49
(g50
g51
NtRp2045
(dp2046
g54
(dp2047
g62
I4
ssg63
g2041
sg56
(lp2048
S"set(['/Applications/web2py.app/Contents/Resources/applications/Project/', '/Applications/web2py.app/Contents/Resources/applications/hw2/', '/Applications/web2py.app/Contents/Resources/applications/admin/', '/Applications/web2py.app/Contents/Resources/applications/welcome/', '/Applications/web2py.app/Contents/Resources/applications/183_Project/'])"
p2049
asbasbasbag49
(g65
g51
NtRp2050
(dp2051
g54
(dp2052
sg63
g2025
sg56
(lp2053
g49
(g70
g51
NtRp2054
(dp2055
g54
(dp2056
g74
g75
ssg63
g2050
sg56
(lp2057
g978
asbag49
(g70
g51
NtRp2058
(dp2059
g54
(dp2060
g81
g82
ssg63
g2050
sg56
(lp2061
S':'
asbag49
(g70
g51
NtRp2062
(dp2063
g54
(dp2064
sg63
g2050
sg56
(lp2065
g49
(g50
g51
NtRp2066
(dp2067
g54
(dp2068
g62
I4
ssg63
g2062
sg56
(lp2069
g991
asbasbasbag49
(g65
g51
NtRp2070
(dp2071
g54
(dp2072
sg63
g2025
sg56
(lp2073
g49
(g70
g51
NtRp2074
(dp2075
g54
(dp2076
g74
g75
ssg63
g2070
sg56
(lp2077
g1000
asbag49
(g70
g51
NtRp2078
(dp2079
g54
(dp2080
g81
g82
ssg63
g2070
sg56
(lp2081
S':'
asbag49
(g70
g51
NtRp2082
(dp2083
g54
(dp2084
sg63
g2070
sg56
(lp2085
g49
(g50
g51
NtRp2086
(dp2087
g54
(dp2088
g62
I4
ssg63
g2082
sg56
(lp2089
g49
(g58
g51
NtRp2090
(dp2091
g54
(dp2092
g62
I3
ssg63
Nsg56
(lp2093
sbasbasbasbag49
(g65
g51
NtRp2094
(dp2095
g54
(dp2096
sg63
g2025
sg56
(lp2097
g49
(g70
g51
NtRp2098
(dp2099
g54
(dp2100
g74
g75
ssg63
g2094
sg56
(lp2101
g1025
asbag49
(g70
g51
NtRp2102
(dp2103
g54
(dp2104
g81
g82
ssg63
g2094
sg56
(lp2105
S':'
asbag49
(g70
g51
NtRp2106
(dp2107
g54
(dp2108
sg63
g2094
sg56
(lp2109
g49
(g50
g51
NtRp2110
(dp2111
g54
(dp2112
g62
I4
ssg63
g2106
sg56
(lp2113
S"<Values at 0x57f1918: {'verbose': False, 'ip': '127.0.0.1', 'with_scheduler': False, 'ips': ['10.0.0.2'], 'shutdown_timeout': 5, 'taskbar': False, 'port': 8000, 'maxthreads': None, 'softcron': False, 'server_name': 'Lukes-MacBook-Pro.local', 'bpython': False, 'nogui': False, 'nocron': False, 'extcron': False, 'run_system_tests': False, 'test': None, 'folder': '/Applications/web2py.app/Contents/Resources', 'config': '', 'import_models': False, 'winservice': '', 'shell': None, 'run': '', 'log_filename': 'httpserver.log', 'debuglevel': 30, 'args': [''], 'socket_timeout': 5, 'ssl_ca_certificate': None, 'scheduler': None, 'profiler_filename': None, 'ssl_private_key': '', 'scheduler_groups': None, 'password': '<ask>', 'request_queue_size': 5, 'ssl_certificate': '', 'cronjob': False, 'numthreads': None, 'quiet': False, 'interfaces': None, 'minthreads': None, 'timeout': 10, 'plain': False, 'nobanner': False, 'pid_filename': 'httpserver.pid'}>"
p2114
asbasbasbag49
(g65
g51
NtRp2115
(dp2116
g54
(dp2117
sg63
g2025
sg56
(lp2118
g49
(g70
g51
NtRp2119
(dp2120
g54
(dp2121
g74
g75
ssg63
g2115
sg56
(lp2122
g1047
asbag49
(g70
g51
NtRp2123
(dp2124
g54
(dp2125
g81
g82
ssg63
g2115
sg56
(lp2126
S':'
asbag49
(g70
g51
NtRp2127
(dp2128
g54
(dp2129
sg63
g2115
sg56
(lp2130
g49
(g50
g51
NtRp2131
(dp2132
g54
(dp2133
g62
I4
ssg63
g2127
sg56
(lp2134
S'set([])'
p2135
asbasbasbag49
(g65
g51
NtRp2136
(dp2137
g54
(dp2138
sg63
g2025
sg56
(lp2139
g49
(g70
g51
NtRp2140
(dp2141
g54
(dp2142
g74
g75
ssg63
g2136
sg56
(lp2143
g1069
asbag49
(g70
g51
NtRp2144
(dp2145
g54
(dp2146
g81
g82
ssg63
g2136
sg56
(lp2147
S':'
asbag49
(g70
g51
NtRp2148
(dp2149
g54
(dp2150
sg63
g2136
sg56
(lp2151
g49
(g50
g51
NtRp2152
(dp2153
g54
(dp2154
g62
I4
ssg63
g2148
sg56
(lp2155
g92
asbasbasbag49
(g65
g51
NtRp2156
(dp2157
g54
(dp2158
sg63
g2025
sg56
(lp2159
g49
(g70
g51
NtRp2160
(dp2161
g54
(dp2162
g74
g75
ssg63
g2156
sg56
(lp2163
g1090
asbag49
(g70
g51
NtRp2164
(dp2165
g54
(dp2166
g81
g82
ssg63
g2156
sg56
(lp2167
S':'
asbag49
(g70
g51
NtRp2168
(dp2169
g54
(dp2170
sg63
g2156
sg56
(lp2171
g49
(g50
g51
NtRp2172
(dp2173
g54
(dp2174
g62
I4
ssg63
g2168
sg56
(lp2175
g1103
asbasbasbag49
(g65
g51
NtRp2176
(dp2177
g54
(dp2178
sg63
g2025
sg56
(lp2179
g49
(g70
g51
NtRp2180
(dp2181
g54
(dp2182
g74
g75
ssg63
g2176
sg56
(lp2183
g1310
asbag49
(g70
g51
NtRp2184
(dp2185
g54
(dp2186
g81
g82
ssg63
g2176
sg56
(lp2187
S':'
asbag49
(g70
g51
NtRp2188
(dp2189
g54
(dp2190
sg63
g2176
sg56
(lp2191
g49
(g50
g51
NtRp2192
(dp2193
g54
(dp2194
g62
I4
ssg63
g2188
sg56
(lp2195
g92
asbasbasbag49
(g65
g51
NtRp2196
(dp2197
g54
(dp2198
sg63
g2025
sg56
(lp2199
g49
(g70
g51
NtRp2200
(dp2201
g54
(dp2202
g74
g75
ssg63
g2196
sg56
(lp2203
g1331
asbag49
(g70
g51
NtRp2204
(dp2205
g54
(dp2206
g81
g82
ssg63
g2196
sg56
(lp2207
S':'
asbag49
(g70
g51
NtRp2208
(dp2209
g54
(dp2210
sg63
g2196
sg56
(lp2211
g49
(g50
g51
NtRp2212
(dp2213
g54
(dp2214
g62
I4
ssg63
g2208
sg56
(lp2215
g92
asbasbasbag49
(g65
g51
NtRp2216
(dp2217
g54
(dp2218
sg63
g2025
sg56
(lp2219
g49
(g70
g51
NtRp2220
(dp2221
g54
(dp2222
g74
g75
ssg63
g2216
sg56
(lp2223
g1590
asbag49
(g70
g51
NtRp2224
(dp2225
g54
(dp2226
g81
g82
ssg63
g2216
sg56
(lp2227
S':'
asbag49
(g70
g51
NtRp2228
(dp2229
g54
(dp2230
sg63
g2216
sg56
(lp2231
g49
(g50
g51
NtRp2232
(dp2233
g54
(dp2234
g62
I4
ssg63
g2228
sg56
(lp2235
g1603
asbasbasbag49
(g65
g51
NtRp2236
(dp2237
g54
(dp2238
sg63
g2025
sg56
(lp2239
g49
(g70
g51
NtRp2240
(dp2241
g54
(dp2242
g74
g75
ssg63
g2236
sg56
(lp2243
g1633
asbag49
(g70
g51
NtRp2244
(dp2245
g54
(dp2246
g81
g82
ssg63
g2236
sg56
(lp2247
S':'
asbag49
(g70
g51
NtRp2248
(dp2249
g54
(dp2250
sg63
g2236
sg56
(lp2251
g49
(g50
g51
NtRp2252
(dp2253
g54
(dp2254
g62
I4
ssg63
g2248
sg56
(lp2255
g49
(g58
g51
NtRp2256
(dp2257
g54
(dp2258
g62
I3
ssg63
Nsg56
(lp2259
g49
(g65
g51
NtRp2260
(dp2261
g54
(dp2262
sg63
g2256
sg56
(lp2263
g49
(g70
g51
NtRp2264
(dp2265
g54
(dp2266
sg63
g2260
sg56
(lp2267
g49
(g50
g51
NtRp2268
(dp2269
g54
(dp2270
g62
I3
ssg63
g2264
sg56
(lp2271
S'2'
asbasbasbag49
(g65
g51
NtRp2272
(dp2273
g54
(dp2274
sg63
g2256
sg56
(lp2275
g49
(g70
g51
NtRp2276
(dp2277
g54
(dp2278
sg63
g2272
sg56
(lp2279
g49
(g50
g51
NtRp2280
(dp2281
g54
(dp2282
g62
I3
ssg63
g2276
sg56
(lp2283
S'0'
asbasbasbag49
(g65
g51
NtRp2284
(dp2285
g54
(dp2286
sg63
g2256
sg56
(lp2287
g49
(g70
g51
NtRp2288
(dp2289
g54
(dp2290
sg63
g2284
sg56
(lp2291
g49
(g50
g51
NtRp2292
(dp2293
g54
(dp2294
g62
I3
ssg63
g2288
sg56
(lp2295
S'9'
asbasbasbag49
(g65
g51
NtRp2296
(dp2297
g54
(dp2298
sg63
g2256
sg56
(lp2299
g49
(g70
g51
NtRp2300
(dp2301
g54
(dp2302
sg63
g2296
sg56
(lp2303
g49
(g50
g51
NtRp2304
(dp2305
g54
(dp2306
g62
I3
ssg63
g2300
sg56
(lp2307
S'datetime.datetime(2012, 9, 13, 23, 51, 30)'
p2308
asbasbasbag49
(g65
g51
NtRp2309
(dp2310
g54
(dp2311
sg63
g2256
sg56
(lp2312
g49
(g70
g51
NtRp2313
(dp2314
g54
(dp2315
sg63
g2309
sg56
(lp2316
g49
(g50
g51
NtRp2317
(dp2318
g54
(dp2319
g62
I3
ssg63
g2313
sg56
(lp2320
g1711
asbasbasbasbasbasbasbasbasbasbasbag49
(g65
g51
NtRp2321
(dp2322
g54
(dp2323
sg63
g59
sg56
(lp2324
g49
(g70
g51
NtRp2325
(dp2326
g54
(dp2327
g74
g75
ssg63
g2321
sg56
(lp2328
S'is_https'
p2329
asbag49
(g70
g51
NtRp2330
(dp2331
g54
(dp2332
g81
g82
ssg63
g2321
sg56
(lp2333
S':'
asbag49
(g70
g51
NtRp2334
(dp2335
g54
(dp2336
sg63
g2321
sg56
(lp2337
g49
(g50
g51
NtRp2338
(dp2339
g54
(dp2340
g62
I5
ssg63
g2334
sg56
(lp2341
g92
asbasbasbag49
(g65
g51
NtRp2342
(dp2343
g54
(dp2344
sg63
g59
sg56
(lp2345
g49
(g70
g51
NtRp2346
(dp2347
g54
(dp2348
g74
g75
ssg63
g2342
sg56
(lp2349
S'is_local'
p2350
asbag49
(g70
g51
NtRp2351
(dp2352
g54
(dp2353
g81
g82
ssg63
g2342
sg56
(lp2354
S':'
asbag49
(g70
g51
NtRp2355
(dp2356
g54
(dp2357
sg63
g2342
sg56
(lp2358
g49
(g50
g51
NtRp2359
(dp2360
g54
(dp2361
g62
I5
ssg63
g2355
sg56
(lp2362
g1820
asbasbasbag49
(g65
g51
NtRp2363
(dp2364
g54
(dp2365
sg63
g59
sg56
(lp2366
g49
(g70
g51
NtRp2367
(dp2368
g54
(dp2369
g74
g75
ssg63
g2363
sg56
(lp2370
S'is_restful'
p2371
asbag49
(g70
g51
NtRp2372
(dp2373
g54
(dp2374
g81
g82
ssg63
g2363
sg56
(lp2375
S':'
asbag49
(g70
g51
NtRp2376
(dp2377
g54
(dp2378
sg63
g2363
sg56
(lp2379
g49
(g50
g51
NtRp2380
(dp2381
g54
(dp2382
g62
I5
ssg63
g2376
sg56
(lp2383
g92
asbasbasbag49
(g65
g51
NtRp2384
(dp2385
g54
(dp2386
sg63
g59
sg56
(lp2387
g49
(g70
g51
NtRp2388
(dp2389
g54
(dp2390
g74
g75
ssg63
g2384
sg56
(lp2391
S'now'
p2392
asbag49
(g70
g51
NtRp2393
(dp2394
g54
(dp2395
g81
g82
ssg63
g2384
sg56
(lp2396
S':'
asbag49
(g70
g51
NtRp2397
(dp2398
g54
(dp2399
sg63
g2384
sg56
(lp2400
g49
(g50
g51
NtRp2401
(dp2402
g54
(dp2403
g62
I5
ssg63
g2397
sg56
(lp2404
S'datetime.datetime(2012, 10, 30, 16, 41, 39, 407812)'
p2405
asbasbasbag49
(g65
g51
NtRp2406
(dp2407
g54
(dp2408
sg63
g59
sg56
(lp2409
g49
(g70
g51
NtRp2410
(dp2411
g54
(dp2412
g74
g75
ssg63
g2406
sg56
(lp2413
S'post_vars'
p2414
asbag49
(g70
g51
NtRp2415
(dp2416
g54
(dp2417
g81
g82
ssg63
g2406
sg56
(lp2418
S':'
asbag49
(g70
g51
NtRp2419
(dp2420
g54
(dp2421
sg63
g2406
sg56
(lp2422
g49
(g50
g51
NtRp2423
(dp2424
g54
(dp2425
g62
I5
ssg63
g2419
sg56
(lp2426
g49
(g58
g51
NtRp2427
(dp2428
g54
(dp2429
g62
I4
ssg63
Nsg56
(lp2430
sbasbasbasbag49
(g65
g51
NtRp2431
(dp2432
g54
(dp2433
sg63
g59
sg56
(lp2434
g49
(g70
g51
NtRp2435
(dp2436
g54
(dp2437
g74
g75
ssg63
g2431
sg56
(lp2438
S'raw_args'
p2439
asbag49
(g70
g51
NtRp2440
(dp2441
g54
(dp2442
g81
g82
ssg63
g2431
sg56
(lp2443
S':'
asbag49
(g70
g51
NtRp2444
(dp2445
g54
(dp2446
sg63
g2431
sg56
(lp2447
g49
(g50
g51
NtRp2448
(dp2449
g54
(dp2450
g62
I5
ssg63
g2444
sg56
(lp2451
S'None'
p2452
asbasbasbag49
(g65
g51
NtRp2453
(dp2454
g54
(dp2455
sg63
g59
sg56
(lp2456
g49
(g70
g51
NtRp2457
(dp2458
g54
(dp2459
g74
g75
ssg63
g2453
sg56
(lp2460
S'raw_extension'
p2461
asbag49
(g70
g51
NtRp2462
(dp2463
g54
(dp2464
g81
g82
ssg63
g2453
sg56
(lp2465
S':'
asbag49
(g70
g51
NtRp2466
(dp2467
g54
(dp2468
sg63
g2453
sg56
(lp2469
g49
(g50
g51
NtRp2470
(dp2471
g54
(dp2472
g62
I5
ssg63
g2466
sg56
(lp2473
S'None'
p2474
asbasbasbag49
(g65
g51
NtRp2475
(dp2476
g54
(dp2477
sg63
g59
sg56
(lp2478
g49
(g70
g51
NtRp2479
(dp2480
g54
(dp2481
g74
g75
ssg63
g2475
sg56
(lp2482
S'url'
p2483
asbag49
(g70
g51
NtRp2484
(dp2485
g54
(dp2486
g81
g82
ssg63
g2475
sg56
(lp2487
S':'
asbag49
(g70
g51
NtRp2488
(dp2489
g54
(dp2490
sg63
g2475
sg56
(lp2491
g49
(g50
g51
NtRp2492
(dp2493
g54
(dp2494
g62
I5
ssg63
g2488
sg56
(lp2495
g1365
asbasbasbag49
(g65
g51
NtRp2496
(dp2497
g54
(dp2498
sg63
g59
sg56
(lp2499
g49
(g70
g51
NtRp2500
(dp2501
g54
(dp2502
g74
g75
ssg63
g2496
sg56
(lp2503
S'utcnow'
p2504
asbag49
(g70
g51
NtRp2505
(dp2506
g54
(dp2507
g81
g82
ssg63
g2496
sg56
(lp2508
S':'
asbag49
(g70
g51
NtRp2509
(dp2510
g54
(dp2511
sg63
g2496
sg56
(lp2512
g49
(g50
g51
NtRp2513
(dp2514
g54
(dp2515
g62
I5
ssg63
g2509
sg56
(lp2516
S'datetime.datetime(2012, 10, 30, 23, 41, 39, 407820)'
p2517
asbasbasbag49
(g65
g51
NtRp2518
(dp2519
g54
(dp2520
sg63
g59
sg56
(lp2521
g49
(g70
g51
NtRp2522
(dp2523
g54
(dp2524
g74
g75
ssg63
g2518
sg56
(lp2525
S'uuid'
p2526
asbag49
(g70
g51
NtRp2527
(dp2528
g54
(dp2529
g81
g82
ssg63
g2518
sg56
(lp2530
S':'
asbag49
(g70
g51
NtRp2531
(dp2532
g54
(dp2533
sg63
g2518
sg56
(lp2534
g49
(g50
g51
NtRp2535
(dp2536
g54
(dp2537
g62
I5
ssg63
g2531
sg56
(lp2538
S'183_Project/127.0.0.1.2012-10-30.16-41-39.e0232c1f-37f7-4b36-945d-f8634bb7ead0'
p2539
asbasbasbag49
(g65
g51
NtRp2540
(dp2541
g54
(dp2542
sg63
g59
sg56
(lp2543
g49
(g70
g51
NtRp2544
(dp2545
g54
(dp2546
g74
g75
ssg63
g2540
sg56
(lp2547
S'vars'
p2548
asbag49
(g70
g51
NtRp2549
(dp2550
g54
(dp2551
g81
g82
ssg63
g2540
sg56
(lp2552
S':'
asbag49
(g70
g51
NtRp2553
(dp2554
g54
(dp2555
sg63
g2540
sg56
(lp2556
g49
(g50
g51
NtRp2557
(dp2558
g54
(dp2559
g62
I5
ssg63
g2553
sg56
(lp2560
g49
(g58
g51
NtRp2561
(dp2562
g54
(dp2563
g62
I4
ssg63
Nsg56
(lp2564
sbasbasbasbag49
(g65
g51
NtRp2565
(dp2566
g54
(dp2567
sg63
g59
sg56
(lp2568
g49
(g70
g51
NtRp2569
(dp2570
g54
(dp2571
g74
g75
ssg63
g2565
sg56
(lp2572
S'wsgi'
p2573
asbag49
(g70
g51
NtRp2574
(dp2575
g54
(dp2576
g81
g82
ssg63
g2565
sg56
(lp2577
S':'
asbag49
(g70
g51
NtRp2578
(dp2579
g54
(dp2580
sg63
g2565
sg56
(lp2581
g49
(g50
g51
NtRp2582
(dp2583
g54
(dp2584
g62
I5
ssg63
g2578
sg56
(lp2585
g49
(g58
g51
NtRp2586
(dp2587
g54
(dp2588
g62
I4
ssg63
Nsg56
(lp2589
g49
(g65
g51
NtRp2590
(dp2591
g54
(dp2592
sg63
g2586
sg56
(lp2593
g49
(g70
g51
NtRp2594
(dp2595
g54
(dp2596
g74
g75
ssg63
g2590
sg56
(lp2597
S'environ'
p2598
asbag49
(g70
g51
NtRp2599
(dp2600
g54
(dp2601
g81
g82
ssg63
g2590
sg56
(lp2602
S':'
asbag49
(g70
g51
NtRp2603
(dp2604
g54
(dp2605
sg63
g2590
sg56
(lp2606
g49
(g50
g51
NtRp2607
(dp2608
g54
(dp2609
g62
I4
ssg63
g2603
sg56
(lp2610
g49
(g58
g51
NtRp2611
(dp2612
g54
(dp2613
g62
I3
ssg63
Nsg56
(lp2614
g49
(g65
g51
NtRp2615
(dp2616
g54
(dp2617
sg63
g2611
sg56
(lp2618
g49
(g70
g51
NtRp2619
(dp2620
g54
(dp2621
g74
g75
ssg63
g2615
sg56
(lp2622
S'HTTP_ACCEPT'
p2623
asbag49
(g70
g51
NtRp2624
(dp2625
g54
(dp2626
g81
g82
ssg63
g2615
sg56
(lp2627
S':'
asbag49
(g70
g51
NtRp2628
(dp2629
g54
(dp2630
sg63
g2615
sg56
(lp2631
g49
(g50
g51
NtRp2632
(dp2633
g54
(dp2634
g62
I3
ssg63
g2628
sg56
(lp2635
g1125
asbasbasbag49
(g65
g51
NtRp2636
(dp2637
g54
(dp2638
sg63
g2611
sg56
(lp2639
g49
(g70
g51
NtRp2640
(dp2641
g54
(dp2642
g74
g75
ssg63
g2636
sg56
(lp2643
S'HTTP_ACCEPT_CHARSET'
p2644
asbag49
(g70
g51
NtRp2645
(dp2646
g54
(dp2647
g81
g82
ssg63
g2636
sg56
(lp2648
S':'
asbag49
(g70
g51
NtRp2649
(dp2650
g54
(dp2651
sg63
g2636
sg56
(lp2652
g49
(g50
g51
NtRp2653
(dp2654
g54
(dp2655
g62
I3
ssg63
g2649
sg56
(lp2656
g1147
asbasbasbag49
(g65
g51
NtRp2657
(dp2658
g54
(dp2659
sg63
g2611
sg56
(lp2660
g49
(g70
g51
NtRp2661
(dp2662
g54
(dp2663
g74
g75
ssg63
g2657
sg56
(lp2664
S'HTTP_ACCEPT_ENCODING'
p2665
asbag49
(g70
g51
NtRp2666
(dp2667
g54
(dp2668
g81
g82
ssg63
g2657
sg56
(lp2669
S':'
asbag49
(g70
g51
NtRp2670
(dp2671
g54
(dp2672
sg63
g2657
sg56
(lp2673
g49
(g50
g51
NtRp2674
(dp2675
g54
(dp2676
g62
I3
ssg63
g2670
sg56
(lp2677
g1169
asbasbasbag49
(g65
g51
NtRp2678
(dp2679
g54
(dp2680
sg63
g2611
sg56
(lp2681
g49
(g70
g51
NtRp2682
(dp2683
g54
(dp2684
g74
g75
ssg63
g2678
sg56
(lp2685
S'HTTP_ACCEPT_LANGUAGE'
p2686
asbag49
(g70
g51
NtRp2687
(dp2688
g54
(dp2689
g81
g82
ssg63
g2678
sg56
(lp2690
S':'
asbag49
(g70
g51
NtRp2691
(dp2692
g54
(dp2693
sg63
g2678
sg56
(lp2694
g49
(g50
g51
NtRp2695
(dp2696
g54
(dp2697
g62
I3
ssg63
g2691
sg56
(lp2698
g1191
asbasbasbag49
(g65
g51
NtRp2699
(dp2700
g54
(dp2701
sg63
g2611
sg56
(lp2702
g49
(g70
g51
NtRp2703
(dp2704
g54
(dp2705
g74
g75
ssg63
g2699
sg56
(lp2706
S'HTTP_CONNECTION'
p2707
asbag49
(g70
g51
NtRp2708
(dp2709
g54
(dp2710
g81
g82
ssg63
g2699
sg56
(lp2711
S':'
asbag49
(g70
g51
NtRp2712
(dp2713
g54
(dp2714
sg63
g2699
sg56
(lp2715
g49
(g50
g51
NtRp2716
(dp2717
g54
(dp2718
g62
I3
ssg63
g2712
sg56
(lp2719
g1213
asbasbasbag49
(g65
g51
NtRp2720
(dp2721
g54
(dp2722
sg63
g2611
sg56
(lp2723
g49
(g70
g51
NtRp2724
(dp2725
g54
(dp2726
g74
g75
ssg63
g2720
sg56
(lp2727
S'HTTP_COOKIE'
p2728
asbag49
(g70
g51
NtRp2729
(dp2730
g54
(dp2731
g81
g82
ssg63
g2720
sg56
(lp2732
S':'
asbag49
(g70
g51
NtRp2733
(dp2734
g54
(dp2735
sg63
g2720
sg56
(lp2736
g49
(g50
g51
NtRp2737
(dp2738
g54
(dp2739
g62
I3
ssg63
g2733
sg56
(lp2740
g1235
asbasbasbag49
(g65
g51
NtRp2741
(dp2742
g54
(dp2743
sg63
g2611
sg56
(lp2744
g49
(g70
g51
NtRp2745
(dp2746
g54
(dp2747
g74
g75
ssg63
g2741
sg56
(lp2748
S'HTTP_HOST'
p2749
asbag49
(g70
g51
NtRp2750
(dp2751
g54
(dp2752
g81
g82
ssg63
g2741
sg56
(lp2753
S':'
asbag49
(g70
g51
NtRp2754
(dp2755
g54
(dp2756
sg63
g2741
sg56
(lp2757
g49
(g50
g51
NtRp2758
(dp2759
g54
(dp2760
g62
I3
ssg63
g2754
sg56
(lp2761
g1257
asbasbasbag49
(g65
g51
NtRp2762
(dp2763
g54
(dp2764
sg63
g2611
sg56
(lp2765
g49
(g70
g51
NtRp2766
(dp2767
g54
(dp2768
g74
g75
ssg63
g2762
sg56
(lp2769
S'HTTP_REFERER'
p2770
asbag49
(g70
g51
NtRp2771
(dp2772
g54
(dp2773
g81
g82
ssg63
g2762
sg56
(lp2774
S':'
asbag49
(g70
g51
NtRp2775
(dp2776
g54
(dp2777
sg63
g2762
sg56
(lp2778
g49
(g50
g51
NtRp2779
(dp2780
g54
(dp2781
g62
I3
ssg63
g2775
sg56
(lp2782
g1279
asbasbasbag49
(g65
g51
NtRp2783
(dp2784
g54
(dp2785
sg63
g2611
sg56
(lp2786
g49
(g70
g51
NtRp2787
(dp2788
g54
(dp2789
g74
g75
ssg63
g2783
sg56
(lp2790
S'HTTP_USER_AGENT'
p2791
asbag49
(g70
g51
NtRp2792
(dp2793
g54
(dp2794
g81
g82
ssg63
g2783
sg56
(lp2795
S':'
asbag49
(g70
g51
NtRp2796
(dp2797
g54
(dp2798
sg63
g2783
sg56
(lp2799
g49
(g50
g51
NtRp2800
(dp2801
g54
(dp2802
g62
I3
ssg63
g2796
sg56
(lp2803
g1301
asbasbasbag49
(g65
g51
NtRp2804
(dp2805
g54
(dp2806
sg63
g2611
sg56
(lp2807
g49
(g70
g51
NtRp2808
(dp2809
g54
(dp2810
g74
g75
ssg63
g2804
sg56
(lp2811
S'PATH_INFO'
p2812
asbag49
(g70
g51
NtRp2813
(dp2814
g54
(dp2815
g81
g82
ssg63
g2804
sg56
(lp2816
S':'
asbag49
(g70
g51
NtRp2817
(dp2818
g54
(dp2819
sg63
g2804
sg56
(lp2820
g49
(g50
g51
NtRp2821
(dp2822
g54
(dp2823
g62
I3
ssg63
g2817
sg56
(lp2824
g1365
asbasbasbag49
(g65
g51
NtRp2825
(dp2826
g54
(dp2827
sg63
g2611
sg56
(lp2828
g49
(g70
g51
NtRp2829
(dp2830
g54
(dp2831
g74
g75
ssg63
g2825
sg56
(lp2832
S'QUERY_STRING'
p2833
asbag49
(g70
g51
NtRp2834
(dp2835
g54
(dp2836
g81
g82
ssg63
g2825
sg56
(lp2837
S':'
asbag49
(g70
g51
NtRp2838
(dp2839
g54
(dp2840
sg63
g2825
sg56
(lp2841
g49
(g50
g51
NtRp2842
(dp2843
g54
(dp2844
g62
I3
ssg63
g2838
sg56
(lp2845
S''
asbasbasbag49
(g65
g51
NtRp2846
(dp2847
g54
(dp2848
sg63
g2611
sg56
(lp2849
g49
(g70
g51
NtRp2850
(dp2851
g54
(dp2852
g74
g75
ssg63
g2846
sg56
(lp2853
S'REMOTE_ADDR'
p2854
asbag49
(g70
g51
NtRp2855
(dp2856
g54
(dp2857
g81
g82
ssg63
g2846
sg56
(lp2858
S':'
asbag49
(g70
g51
NtRp2859
(dp2860
g54
(dp2861
sg63
g2846
sg56
(lp2862
g49
(g50
g51
NtRp2863
(dp2864
g54
(dp2865
g62
I3
ssg63
g2859
sg56
(lp2866
g204
asbasbasbag49
(g65
g51
NtRp2867
(dp2868
g54
(dp2869
sg63
g2611
sg56
(lp2870
g49
(g70
g51
NtRp2871
(dp2872
g54
(dp2873
g74
g75
ssg63
g2867
sg56
(lp2874
S'REMOTE_PORT'
p2875
asbag49
(g70
g51
NtRp2876
(dp2877
g54
(dp2878
g81
g82
ssg63
g2867
sg56
(lp2879
S':'
asbag49
(g70
g51
NtRp2880
(dp2881
g54
(dp2882
sg63
g2867
sg56
(lp2883
g49
(g50
g51
NtRp2884
(dp2885
g54
(dp2886
g62
I3
ssg63
g2880
sg56
(lp2887
g1429
asbasbasbag49
(g65
g51
NtRp2888
(dp2889
g54
(dp2890
sg63
g2611
sg56
(lp2891
g49
(g70
g51
NtRp2892
(dp2893
g54
(dp2894
g74
g75
ssg63
g2888
sg56
(lp2895
S'REQUEST_METHOD'
p2896
asbag49
(g70
g51
NtRp2897
(dp2898
g54
(dp2899
g81
g82
ssg63
g2888
sg56
(lp2900
S':'
asbag49
(g70
g51
NtRp2901
(dp2902
g54
(dp2903
sg63
g2888
sg56
(lp2904
g49
(g50
g51
NtRp2905
(dp2906
g54
(dp2907
g62
I3
ssg63
g2901
sg56
(lp2908
g1451
asbasbasbag49
(g65
g51
NtRp2909
(dp2910
g54
(dp2911
sg63
g2611
sg56
(lp2912
g49
(g70
g51
NtRp2913
(dp2914
g54
(dp2915
g74
g75
ssg63
g2909
sg56
(lp2916
S'REQUEST_URI'
p2917
asbag49
(g70
g51
NtRp2918
(dp2919
g54
(dp2920
g81
g82
ssg63
g2909
sg56
(lp2921
S':'
asbag49
(g70
g51
NtRp2922
(dp2923
g54
(dp2924
sg63
g2909
sg56
(lp2925
g49
(g50
g51
NtRp2926
(dp2927
g54
(dp2928
g62
I3
ssg63
g2922
sg56
(lp2929
g1365
asbasbasbag49
(g65
g51
NtRp2930
(dp2931
g54
(dp2932
sg63
g2611
sg56
(lp2933
g49
(g70
g51
NtRp2934
(dp2935
g54
(dp2936
g74
g75
ssg63
g2930
sg56
(lp2937
S'SCRIPT_NAME'
p2938
asbag49
(g70
g51
NtRp2939
(dp2940
g54
(dp2941
g81
g82
ssg63
g2930
sg56
(lp2942
S':'
asbag49
(g70
g51
NtRp2943
(dp2944
g54
(dp2945
sg63
g2930
sg56
(lp2946
g49
(g50
g51
NtRp2947
(dp2948
g54
(dp2949
g62
I3
ssg63
g2943
sg56
(lp2950
S''
asbasbasbag49
(g65
g51
NtRp2951
(dp2952
g54
(dp2953
sg63
g2611
sg56
(lp2954
g49
(g70
g51
NtRp2955
(dp2956
g54
(dp2957
g74
g75
ssg63
g2951
sg56
(lp2958
S'SERVER_NAME'
p2959
asbag49
(g70
g51
NtRp2960
(dp2961
g54
(dp2962
g81
g82
ssg63
g2951
sg56
(lp2963
S':'
asbag49
(g70
g51
NtRp2964
(dp2965
g54
(dp2966
sg63
g2951
sg56
(lp2967
g49
(g50
g51
NtRp2968
(dp2969
g54
(dp2970
g62
I3
ssg63
g2964
sg56
(lp2971
g1515
asbasbasbag49
(g65
g51
NtRp2972
(dp2973
g54
(dp2974
sg63
g2611
sg56
(lp2975
g49
(g70
g51
NtRp2976
(dp2977
g54
(dp2978
g74
g75
ssg63
g2972
sg56
(lp2979
S'SERVER_PORT'
p2980
asbag49
(g70
g51
NtRp2981
(dp2982
g54
(dp2983
g81
g82
ssg63
g2972
sg56
(lp2984
S':'
asbag49
(g70
g51
NtRp2985
(dp2986
g54
(dp2987
sg63
g2972
sg56
(lp2988
g49
(g50
g51
NtRp2989
(dp2990
g54
(dp2991
g62
I3
ssg63
g2985
sg56
(lp2992
g1537
asbasbasbag49
(g65
g51
NtRp2993
(dp2994
g54
(dp2995
sg63
g2611
sg56
(lp2996
g49
(g70
g51
NtRp2997
(dp2998
g54
(dp2999
g74
g75
ssg63
g2993
sg56
(lp3000
S'SERVER_PROTOCOL'
p3001
asbag49
(g70
g51
NtRp3002
(dp3003
g54
(dp3004
g81
g82
ssg63
g2993
sg56
(lp3005
S':'
asbag49
(g70
g51
NtRp3006
(dp3007
g54
(dp3008
sg63
g2993
sg56
(lp3009
g49
(g50
g51
NtRp3010
(dp3011
g54
(dp3012
g62
I3
ssg63
g3006
sg56
(lp3013
g1559
asbasbasbag49
(g65
g51
NtRp3014
(dp3015
g54
(dp3016
sg63
g2611
sg56
(lp3017
g49
(g70
g51
NtRp3018
(dp3019
g54
(dp3020
g74
g75
ssg63
g3014
sg56
(lp3021
S'SERVER_SOFTWARE'
p3022
asbag49
(g70
g51
NtRp3023
(dp3024
g54
(dp3025
g81
g82
ssg63
g3014
sg56
(lp3026
S':'
asbag49
(g70
g51
NtRp3027
(dp3028
g54
(dp3029
sg63
g3014
sg56
(lp3030
g49
(g50
g51
NtRp3031
(dp3032
g54
(dp3033
g62
I3
ssg63
g3027
sg56
(lp3034
g1581
asbasbasbag49
(g65
g51
NtRp3035
(dp3036
g54
(dp3037
sg63
g2611
sg56
(lp3038
g49
(g70
g51
NtRp3039
(dp3040
g54
(dp3041
g74
g75
ssg63
g3035
sg56
(lp3042
S'wsgi.errors'
p3043
asbag49
(g70
g51
NtRp3044
(dp3045
g54
(dp3046
g81
g82
ssg63
g3035
sg56
(lp3047
S':'
asbag49
(g70
g51
NtRp3048
(dp3049
g54
(dp3050
sg63
g3035
sg56
(lp3051
g49
(g50
g51
NtRp3052
(dp3053
g54
(dp3054
g62
I3
ssg63
g3048
sg56
(lp3055
S"<open file '<stderr>', mode 'w' at 0x750b0>"
p3056
asbasbasbag49
(g65
g51
NtRp3057
(dp3058
g54
(dp3059
sg63
g2611
sg56
(lp3060
g49
(g70
g51
NtRp3061
(dp3062
g54
(dp3063
g74
g75
ssg63
g3057
sg56
(lp3064
S'wsgi.file_wrapper'
p3065
asbag49
(g70
g51
NtRp3066
(dp3067
g54
(dp3068
g81
g82
ssg63
g3057
sg56
(lp3069
S':'
asbag49
(g70
g51
NtRp3070
(dp3071
g54
(dp3072
sg63
g3057
sg56
(lp3073
g49
(g50
g51
NtRp3074
(dp3075
g54
(dp3076
g62
I3
ssg63
g3070
sg56
(lp3077
S'<class wsgiref.util.FileWrapper at 0x57d00c0>'
p3078
asbasbasbag49
(g65
g51
NtRp3079
(dp3080
g54
(dp3081
sg63
g2611
sg56
(lp3082
g49
(g70
g51
NtRp3083
(dp3084
g54
(dp3085
g74
g75
ssg63
g3079
sg56
(lp3086
S'wsgi.input'
p3087
asbag49
(g70
g51
NtRp3088
(dp3089
g54
(dp3090
g81
g82
ssg63
g3079
sg56
(lp3091
S':'
asbag49
(g70
g51
NtRp3092
(dp3093
g54
(dp3094
sg63
g3079
sg56
(lp3095
g49
(g50
g51
NtRp3096
(dp3097
g54
(dp3098
g62
I3
ssg63
g3092
sg56
(lp3099
S'<cStringIO.StringO object at 0xa448f80>'
p3100
asbasbasbag49
(g65
g51
NtRp3101
(dp3102
g54
(dp3103
sg63
g2611
sg56
(lp3104
g49
(g70
g51
NtRp3105
(dp3106
g54
(dp3107
g74
g75
ssg63
g3101
sg56
(lp3108
S'wsgi.multiprocess'
p3109
asbag49
(g70
g51
NtRp3110
(dp3111
g54
(dp3112
g81
g82
ssg63
g3101
sg56
(lp3113
S':'
asbag49
(g70
g51
NtRp3114
(dp3115
g54
(dp3116
sg63
g3101
sg56
(lp3117
g49
(g50
g51
NtRp3118
(dp3119
g54
(dp3120
g62
I3
ssg63
g3114
sg56
(lp3121
g92
asbasbasbag49
(g65
g51
NtRp3122
(dp3123
g54
(dp3124
sg63
g2611
sg56
(lp3125
g49
(g70
g51
NtRp3126
(dp3127
g54
(dp3128
g74
g75
ssg63
g3122
sg56
(lp3129
S'wsgi.multithread'
p3130
asbag49
(g70
g51
NtRp3131
(dp3132
g54
(dp3133
g81
g82
ssg63
g3122
sg56
(lp3134
S':'
asbag49
(g70
g51
NtRp3135
(dp3136
g54
(dp3137
sg63
g3122
sg56
(lp3138
g49
(g50
g51
NtRp3139
(dp3140
g54
(dp3141
g62
I3
ssg63
g3135
sg56
(lp3142
g1820
asbasbasbag49
(g65
g51
NtRp3143
(dp3144
g54
(dp3145
sg63
g2611
sg56
(lp3146
g49
(g70
g51
NtRp3147
(dp3148
g54
(dp3149
g74
g75
ssg63
g3143
sg56
(lp3150
S'wsgi.run_once'
p3151
asbag49
(g70
g51
NtRp3152
(dp3153
g54
(dp3154
g81
g82
ssg63
g3143
sg56
(lp3155
S':'
asbag49
(g70
g51
NtRp3156
(dp3157
g54
(dp3158
sg63
g3143
sg56
(lp3159
g49
(g50
g51
NtRp3160
(dp3161
g54
(dp3162
g62
I3
ssg63
g3156
sg56
(lp3163
g92
asbasbasbag49
(g65
g51
NtRp3164
(dp3165
g54
(dp3166
sg63
g2611
sg56
(lp3167
g49
(g70
g51
NtRp3168
(dp3169
g54
(dp3170
g74
g75
ssg63
g3164
sg56
(lp3171
S'wsgi.url_scheme'
p3172
asbag49
(g70
g51
NtRp3173
(dp3174
g54
(dp3175
g81
g82
ssg63
g3164
sg56
(lp3176
S':'
asbag49
(g70
g51
NtRp3177
(dp3178
g54
(dp3179
sg63
g3164
sg56
(lp3180
g49
(g50
g51
NtRp3181
(dp3182
g54
(dp3183
g62
I3
ssg63
g3177
sg56
(lp3184
g1863
asbasbasbag49
(g65
g51
NtRp3185
(dp3186
g54
(dp3187
sg63
g2611
sg56
(lp3188
g49
(g70
g51
NtRp3189
(dp3190
g54
(dp3191
g74
g75
ssg63
g3185
sg56
(lp3192
S'wsgi.version'
p3193
asbag49
(g70
g51
NtRp3194
(dp3195
g54
(dp3196
g81
g82
ssg63
g3185
sg56
(lp3197
S':'
asbag49
(g70
g51
NtRp3198
(dp3199
g54
(dp3200
sg63
g3185
sg56
(lp3201
g49
(g50
g51
NtRp3202
(dp3203
g54
(dp3204
g62
I3
ssg63
g3198
sg56
(lp3205
S'1'
asbasbasbasbasbasbasbasbasbasbasbasbasbsS'frames'
p3206
(lp3207
(dp3208
S'file'
p3209
S'/Applications/web2py.app/Contents/Resources/gluon/restricted.py'
p3210
sS'dump'
p3211
(dp3212
sS'lnum'
p3213
I209
sS'lines'
p3214
(dp3215
sS'call'
p3216
S'(code="# coding: utf8\\n\\ndb.define_table(\'clinics\',\\n    F...t be valid phone number (of form xxx-xxx-xxxx)\')\\n", environment={\'A\': <class \'gluon.html.A\'>, \'Auth\': <class \'gluon.tools.Auth\'>, \'B\': <class \'gluon.html.B\'>, \'BEAUTIFY\': <class \'gluon.html.BEAUTIFY\'>, \'BODY\': <class \'gluon.html.BODY\'>, \'BR\': <class \'gluon.html.BR\'>, \'BUTTON\': <class \'gluon.html.BUTTON\'>, \'CAT\': <class \'gluon.html.CAT\'>, \'CENTER\': <class \'gluon.html.CENTER\'>, \'CLEANUP\': <class \'gluon.validators.CLEANUP\'>, ...}, layer=\'/Applications/web2py.app/Contents/Resources/applications/183_Project/models/providers.py\')'
p3217
sS'func'
p3218
S'restricted'
p3219
sa(dp3220
g3209
S'/Applications/web2py.app/Contents/Resources/applications/183_Project/models/providers.py'
p3221
sg3211
(dp3222
sg3213
I13
sg3214
(dp3223
I5
S"    Field('image', 'upload'),"
p3224
sI6
S"    Field('email', 'string'),"
p3225
sI7
S"    Field('phone', 'string'),"
p3226
sI8
S"    Field('address', 'string'),"
p3227
sI9
S"    Field('description', 'text'),"
p3228
sI10
S"    format='%(name)s'"
p3229
sI11
S'    )'
p3230
sI12
S''
sI13
S'db.clinic.email.requires = IS_EMAIL()'
p3231
sI14
S"db.clinic.phone.requires = IS_SLUG(maxlen=12, check=True, error_message='Must be valid phone number (of form xxx-xxx-xxxx)')"
p3232
ssg3216
S'()'
p3233
sg3218
S'<module>'
p3234
sa(dp3235
g3209
S'/Applications/web2py.app/Contents/Resources/gluon/dal.py'
p3236
sg3211
(dp3237
sg3213
I7153
sg3214
(dp3238
sg3216
S"(self=<DAL sqlite://storage.sqlite>, key='clinic')"
p3239
sg3218
S'__getattr__'
p3240
sasS'pyver'
p3241
S'Python 2.5.1: /Applications/web2py.app/Contents/MacOS/python'
p3242
sS'session'
p3243
g49
(g50
g51
NtRp3244
(dp3245
g54
(dp3246
sg56
(lp3247
g49
(g58
g51
NtRp3248
(dp3249
g54
(dp3250
g62
I5
ssg63
Nsg56
(lp3251
g49
(g65
g51
NtRp3252
(dp3253
g54
(dp3254
sg63
g3248
sg56
(lp3255
g49
(g70
g51
NtRp3256
(dp3257
g54
(dp3258
g74
g75
ssg63
g3252
sg56
(lp3259
S'auth'
p3260
asbag49
(g70
g51
NtRp3261
(dp3262
g54
(dp3263
g81
g82
ssg63
g3252
sg56
(lp3264
S':'
asbag49
(g70
g51
NtRp3265
(dp3266
g54
(dp3267
sg63
g3252
sg56
(lp3268
g49
(g50
g51
NtRp3269
(dp3270
g54
(dp3271
g62
I5
ssg63
g3265
sg56
(lp3272
S'None'
p3273
asbasbasbasbasbsS'etype'
p3274
S"<type 'exceptions.AttributeError'>"
p3275
sS'date'
p3276
S'Tue Oct 30 16:41:39 2012'
p3277
sS'response'
p3278
g49
(g50
g51
NtRp3279
(dp3280
g54
(dp3281
sg56
(lp3282
g49
(g58
g51
NtRp3283
(dp3284
g54
(dp3285
g62
I5
ssg63
Nsg56
(lp3286
g49
(g65
g51
NtRp3287
(dp3288
g54
(dp3289
sg63
g3283
sg56
(lp3290
g49
(g70
g51
NtRp3291
(dp3292
g54
(dp3293
g74
g75
ssg63
g3287
sg56
(lp3294
g147
asbag49
(g70
g51
NtRp3295
(dp3296
g54
(dp3297
g81
g82
ssg63
g3287
sg56
(lp3298
S':'
asbag49
(g70
g51
NtRp3299
(dp3300
g54
(dp3301
sg63
g3287
sg56
(lp3302
g49
(g50
g51
NtRp3303
(dp3304
g54
(dp3305
g62
I5
ssg63
g3299
sg56
(lp3306
S'<cStringIO.StringO object at 0xa448b80>'
p3307
asbasbasbag49
(g65
g51
NtRp3308
(dp3309
g54
(dp3310
sg63
g3283
sg56
(lp3311
g49
(g70
g51
NtRp3312
(dp3313
g54
(dp3314
g74
g75
ssg63
g3308
sg56
(lp3315
g235
asbag49
(g70
g51
NtRp3316
(dp3317
g54
(dp3318
g81
g82
ssg63
g3308
sg56
(lp3319
S':'
asbag49
(g70
g51
NtRp3320
(dp3321
g54
(dp3322
sg63
g3308
sg56
(lp3323
g49
(g50
g51
NtRp3324
(dp3325
g54
(dp3326
g62
I5
ssg63
g3320
sg56
(lp3327
g49
(g58
g51
NtRp3328
(dp3329
g54
(dp3330
g62
I4
ssg63
Nsg56
(lp3331
g49
(g65
g51
NtRp3332
(dp3333
g54
(dp3334
sg63
g3328
sg56
(lp3335
g49
(g70
g51
NtRp3336
(dp3337
g54
(dp3338
g74
g75
ssg63
g3332
sg56
(lp3339
S'session_id_183_project'
p3340
asbag49
(g70
g51
NtRp3341
(dp3342
g54
(dp3343
g81
g82
ssg63
g3332
sg56
(lp3344
S':'
asbag49
(g70
g51
NtRp3345
(dp3346
g54
(dp3347
sg63
g3332
sg56
(lp3348
g49
(g50
g51
NtRp3349
(dp3350
g54
(dp3351
g62
I4
ssg63
g3345
sg56
(lp3352
S'127.0.0.1-ddc8a5a5-fcda-435e-a06a-240b8e673665'
p3353
ag49
(g58
g51
NtRp3354
(dp3355
g54
(dp3356
g62
I3
ssg63
Nsg56
(lp3357
g49
(g65
g51
NtRp3358
(dp3359
g54
(dp3360
sg63
g3354
sg56
(lp3361
g49
(g70
g51
NtRp3362
(dp3363
g54
(dp3364
g74
g75
ssg63
g3358
sg56
(lp3365
g286
asbag49
(g70
g51
NtRp3366
(dp3367
g54
(dp3368
g81
g82
ssg63
g3358
sg56
(lp3369
S':'
asbag49
(g70
g51
NtRp3370
(dp3371
g54
(dp3372
sg63
g3358
sg56
(lp3373
g49
(g50
g51
NtRp3374
(dp3375
g54
(dp3376
g62
I3
ssg63
g3370
sg56
(lp3377
S''
asbasbasbag49
(g65
g51
NtRp3378
(dp3379
g54
(dp3380
sg63
g3354
sg56
(lp3381
g49
(g70
g51
NtRp3382
(dp3383
g54
(dp3384
g74
g75
ssg63
g3378
sg56
(lp3385
g307
asbag49
(g70
g51
NtRp3386
(dp3387
g54
(dp3388
g81
g82
ssg63
g3378
sg56
(lp3389
S':'
asbag49
(g70
g51
NtRp3390
(dp3391
g54
(dp3392
sg63
g3378
sg56
(lp3393
g49
(g50
g51
NtRp3394
(dp3395
g54
(dp3396
g62
I3
ssg63
g3390
sg56
(lp3397
S''
asbasbasbag49
(g65
g51
NtRp3398
(dp3399
g54
(dp3400
sg63
g3354
sg56
(lp3401
g49
(g70
g51
NtRp3402
(dp3403
g54
(dp3404
g74
g75
ssg63
g3398
sg56
(lp3405
g328
asbag49
(g70
g51
NtRp3406
(dp3407
g54
(dp3408
g81
g82
ssg63
g3398
sg56
(lp3409
S':'
asbag49
(g70
g51
NtRp3410
(dp3411
g54
(dp3412
sg63
g3398
sg56
(lp3413
g49
(g50
g51
NtRp3414
(dp3415
g54
(dp3416
g62
I3
ssg63
g3410
sg56
(lp3417
S''
asbasbasbag49
(g65
g51
NtRp3418
(dp3419
g54
(dp3420
sg63
g3354
sg56
(lp3421
g49
(g70
g51
NtRp3422
(dp3423
g54
(dp3424
g74
g75
ssg63
g3418
sg56
(lp3425
g349
asbag49
(g70
g51
NtRp3426
(dp3427
g54
(dp3428
g81
g82
ssg63
g3418
sg56
(lp3429
S':'
asbag49
(g70
g51
NtRp3430
(dp3431
g54
(dp3432
sg63
g3418
sg56
(lp3433
g49
(g50
g51
NtRp3434
(dp3435
g54
(dp3436
g62
I3
ssg63
g3430
sg56
(lp3437
S''
asbasbasbag49
(g65
g51
NtRp3438
(dp3439
g54
(dp3440
sg63
g3354
sg56
(lp3441
g49
(g70
g51
NtRp3442
(dp3443
g54
(dp3444
g74
g75
ssg63
g3438
sg56
(lp3445
g370
asbag49
(g70
g51
NtRp3446
(dp3447
g54
(dp3448
g81
g82
ssg63
g3438
sg56
(lp3449
S':'
asbag49
(g70
g51
NtRp3450
(dp3451
g54
(dp3452
sg63
g3438
sg56
(lp3453
g49
(g50
g51
NtRp3454
(dp3455
g54
(dp3456
g62
I3
ssg63
g3450
sg56
(lp3457
S'/'
asbasbasbag49
(g65
g51
NtRp3458
(dp3459
g54
(dp3460
sg63
g3354
sg56
(lp3461
g49
(g70
g51
NtRp3462
(dp3463
g54
(dp3464
g74
g75
ssg63
g3458
sg56
(lp3465
g391
asbag49
(g70
g51
NtRp3466
(dp3467
g54
(dp3468
g81
g82
ssg63
g3458
sg56
(lp3469
S':'
asbag49
(g70
g51
NtRp3470
(dp3471
g54
(dp3472
sg63
g3458
sg56
(lp3473
g49
(g50
g51
NtRp3474
(dp3475
g54
(dp3476
g62
I3
ssg63
g3470
sg56
(lp3477
S''
asbasbasbag49
(g65
g51
NtRp3478
(dp3479
g54
(dp3480
sg63
g3354
sg56
(lp3481
g49
(g70
g51
NtRp3482
(dp3483
g54
(dp3484
g74
g75
ssg63
g3478
sg56
(lp3485
g412
asbag49
(g70
g51
NtRp3486
(dp3487
g54
(dp3488
g81
g82
ssg63
g3478
sg56
(lp3489
S':'
asbag49
(g70
g51
NtRp3490
(dp3491
g54
(dp3492
sg63
g3478
sg56
(lp3493
g49
(g50
g51
NtRp3494
(dp3495
g54
(dp3496
g62
I3
ssg63
g3490
sg56
(lp3497
S''
asbasbasbasbasbasbasbasbasbasbasbag49
(g65
g51
NtRp3498
(dp3499
g54
(dp3500
sg63
g3283
sg56
(lp3501
g49
(g70
g51
NtRp3502
(dp3503
g54
(dp3504
g74
g75
ssg63
g3498
sg56
(lp3505
S'delimiters'
p3506
asbag49
(g70
g51
NtRp3507
(dp3508
g54
(dp3509
g81
g82
ssg63
g3498
sg56
(lp3510
S':'
asbag49
(g70
g51
NtRp3511
(dp3512
g54
(dp3513
sg63
g3498
sg56
(lp3514
g49
(g50
g51
NtRp3515
(dp3516
g54
(dp3517
g62
I5
ssg63
g3511
sg56
(lp3518
g49
(g58
g51
NtRp3519
(dp3520
g54
(dp3521
g62
I4
ssg63
Nsg56
(lp3522
g49
(g65
g51
NtRp3523
(dp3524
g54
(dp3525
sg63
g3519
sg56
(lp3526
g49
(g70
g51
NtRp3527
(dp3528
g54
(dp3529
sg63
g3523
sg56
(lp3530
g49
(g50
g51
NtRp3531
(dp3532
g54
(dp3533
g62
I4
ssg63
g3527
sg56
(lp3534
S'{{'
p3535
asbasbasbag49
(g65
g51
NtRp3536
(dp3537
g54
(dp3538
sg63
g3519
sg56
(lp3539
g49
(g70
g51
NtRp3540
(dp3541
g54
(dp3542
sg63
g3536
sg56
(lp3543
g49
(g50
g51
NtRp3544
(dp3545
g54
(dp3546
g62
I4
ssg63
g3540
sg56
(lp3547
S'}}'
p3548
asbasbasbasbasbasbasbag49
(g65
g51
NtRp3549
(dp3550
g54
(dp3551
sg63
g3283
sg56
(lp3552
g49
(g70
g51
NtRp3553
(dp3554
g54
(dp3555
g74
g75
ssg63
g3549
sg56
(lp3556
S'files'
p3557
asbag49
(g70
g51
NtRp3558
(dp3559
g54
(dp3560
g81
g82
ssg63
g3549
sg56
(lp3561
S':'
asbag49
(g70
g51
NtRp3562
(dp3563
g54
(dp3564
sg63
g3549
sg56
(lp3565
g49
(g50
g51
NtRp3566
(dp3567
g54
(dp3568
g62
I5
ssg63
g3562
sg56
(lp3569
g49
(g58
g51
NtRp3570
(dp3571
g54
(dp3572
g62
I4
ssg63
Nsg56
(lp3573
sbasbasbasbag49
(g65
g51
NtRp3574
(dp3575
g54
(dp3576
sg63
g3283
sg56
(lp3577
g49
(g70
g51
NtRp3578
(dp3579
g54
(dp3580
g74
g75
ssg63
g3574
sg56
(lp3581
S'flash'
p3582
asbag49
(g70
g51
NtRp3583
(dp3584
g54
(dp3585
g81
g82
ssg63
g3574
sg56
(lp3586
S':'
asbag49
(g70
g51
NtRp3587
(dp3588
g54
(dp3589
sg63
g3574
sg56
(lp3590
g49
(g50
g51
NtRp3591
(dp3592
g54
(dp3593
g62
I5
ssg63
g3587
sg56
(lp3594
S''
asbasbasbag49
(g65
g51
NtRp3595
(dp3596
g54
(dp3597
sg63
g3283
sg56
(lp3598
g49
(g70
g51
NtRp3599
(dp3600
g54
(dp3601
g74
g75
ssg63
g3595
sg56
(lp3602
S'generic_patterns'
p3603
asbag49
(g70
g51
NtRp3604
(dp3605
g54
(dp3606
g81
g82
ssg63
g3595
sg56
(lp3607
S':'
asbag49
(g70
g51
NtRp3608
(dp3609
g54
(dp3610
sg63
g3595
sg56
(lp3611
g49
(g50
g51
NtRp3612
(dp3613
g54
(dp3614
g62
I5
ssg63
g3608
sg56
(lp3615
g49
(g58
g51
NtRp3616
(dp3617
g54
(dp3618
g62
I4
ssg63
Nsg56
(lp3619
g49
(g65
g51
NtRp3620
(dp3621
g54
(dp3622
sg63
g3616
sg56
(lp3623
g49
(g70
g51
NtRp3624
(dp3625
g54
(dp3626
sg63
g3620
sg56
(lp3627
g49
(g50
g51
NtRp3628
(dp3629
g54
(dp3630
g62
I4
ssg63
g3624
sg56
(lp3631
S'*'
asbasbasbasbasbasbasbag49
(g65
g51
NtRp3632
(dp3633
g54
(dp3634
sg63
g3283
sg56
(lp3635
g49
(g70
g51
NtRp3636
(dp3637
g54
(dp3638
g74
g75
ssg63
g3632
sg56
(lp3639
S'google_analytics_id'
p3640
asbag49
(g70
g51
NtRp3641
(dp3642
g54
(dp3643
g81
g82
ssg63
g3632
sg56
(lp3644
S':'
asbag49
(g70
g51
NtRp3645
(dp3646
g54
(dp3647
sg63
g3632
sg56
(lp3648
g49
(g50
g51
NtRp3649
(dp3650
g54
(dp3651
g62
I5
ssg63
g3645
sg56
(lp3652
S'None'
p3653
asbasbasbag49
(g65
g51
NtRp3654
(dp3655
g54
(dp3656
sg63
g3283
sg56
(lp3657
g49
(g70
g51
NtRp3658
(dp3659
g54
(dp3660
g74
g75
ssg63
g3654
sg56
(lp3661
S'headers'
p3662
asbag49
(g70
g51
NtRp3663
(dp3664
g54
(dp3665
g81
g82
ssg63
g3654
sg56
(lp3666
S':'
asbag49
(g70
g51
NtRp3667
(dp3668
g54
(dp3669
sg63
g3654
sg56
(lp3670
g49
(g50
g51
NtRp3671
(dp3672
g54
(dp3673
g62
I5
ssg63
g3667
sg56
(lp3674
g49
(g58
g51
NtRp3675
(dp3676
g54
(dp3677
g62
I4
ssg63
Nsg56
(lp3678
g49
(g65
g51
NtRp3679
(dp3680
g54
(dp3681
sg63
g3675
sg56
(lp3682
g49
(g70
g51
NtRp3683
(dp3684
g54
(dp3685
g74
g75
ssg63
g3679
sg56
(lp3686
S'X-Powered-By'
p3687
asbag49
(g70
g51
NtRp3688
(dp3689
g54
(dp3690
g81
g82
ssg63
g3679
sg56
(lp3691
S':'
asbag49
(g70
g51
NtRp3692
(dp3693
g54
(dp3694
sg63
g3679
sg56
(lp3695
g49
(g50
g51
NtRp3696
(dp3697
g54
(dp3698
g62
I4
ssg63
g3692
sg56
(lp3699
S'web2py'
p3700
asbasbasbasbasbasbasbag49
(g65
g51
NtRp3701
(dp3702
g54
(dp3703
sg63
g3283
sg56
(lp3704
g49
(g70
g51
NtRp3705
(dp3706
g54
(dp3707
g74
g75
ssg63
g3701
sg56
(lp3708
S'menu'
p3709
asbag49
(g70
g51
NtRp3710
(dp3711
g54
(dp3712
g81
g82
ssg63
g3701
sg56
(lp3713
S':'
asbag49
(g70
g51
NtRp3714
(dp3715
g54
(dp3716
sg63
g3701
sg56
(lp3717
g49
(g50
g51
NtRp3718
(dp3719
g54
(dp3720
g62
I5
ssg63
g3714
sg56
(lp3721
g49
(g58
g51
NtRp3722
(dp3723
g54
(dp3724
g62
I4
ssg63
Nsg56
(lp3725
g49
(g65
g51
NtRp3726
(dp3727
g54
(dp3728
sg63
g3722
sg56
(lp3729
g49
(g70
g51
NtRp3730
(dp3731
g54
(dp3732
sg63
g3726
sg56
(lp3733
g49
(g50
g51
NtRp3734
(dp3735
g54
(dp3736
g62
I4
ssg63
g3730
sg56
(lp3737
g49
(g58
g51
NtRp3738
(dp3739
g54
(dp3740
g62
I3
ssg63
Nsg56
(lp3741
g49
(g65
g51
NtRp3742
(dp3743
g54
(dp3744
sg63
g3738
sg56
(lp3745
g49
(g70
g51
NtRp3746
(dp3747
g54
(dp3748
sg63
g3742
sg56
(lp3749
g49
(g50
g51
NtRp3750
(dp3751
g54
(dp3752
g62
I3
ssg63
g3746
sg56
(lp3753
cgluon.languages
lazyT_unpickle
p3754
(S't\x04\x00\x00\x00Home'
tRp3755
asbasbasbag49
(g65
g51
NtRp3756
(dp3757
g54
(dp3758
sg63
g3738
sg56
(lp3759
g49
(g70
g51
NtRp3760
(dp3761
g54
(dp3762
sg63
g3756
sg56
(lp3763
g49
(g50
g51
NtRp3764
(dp3765
g54
(dp3766
g62
I3
ssg63
g3760
sg56
(lp3767
g92
asbasbasbag49
(g65
g51
NtRp3768
(dp3769
g54
(dp3770
sg63
g3738
sg56
(lp3771
g49
(g70
g51
NtRp3772
(dp3773
g54
(dp3774
sg63
g3768
sg56
(lp3775
g49
(g50
g51
NtRp3776
(dp3777
g54
(dp3778
g62
I3
ssg63
g3772
sg56
(lp3779
S'/183_Project/default/index'
p3780
asbasbasbag49
(g65
g51
NtRp3781
(dp3782
g54
(dp3783
sg63
g3738
sg56
(lp3784
g49
(g70
g51
NtRp3785
(dp3786
g54
(dp3787
sg63
g3781
sg56
(lp3788
g49
(g50
g51
NtRp3789
(dp3790
g54
(dp3791
g62
I3
ssg63
g3785
sg56
(lp3792
g49
(g58
g51
NtRp3793
(dp3794
g54
(dp3795
g62
I2
ssg63
Nsg56
(lp3796
sbasbasbasbasbasbasbasbag49
(g65
g51
NtRp3797
(dp3798
g54
(dp3799
sg63
g3722
sg56
(lp3800
g49
(g70
g51
NtRp3801
(dp3802
g54
(dp3803
sg63
g3797
sg56
(lp3804
g49
(g50
g51
NtRp3805
(dp3806
g54
(dp3807
g62
I4
ssg63
g3801
sg56
(lp3808
g49
(g58
g51
NtRp3809
(dp3810
g54
(dp3811
g62
I3
ssg63
Nsg56
(lp3812
g49
(g65
g51
NtRp3813
(dp3814
g54
(dp3815
sg63
g3809
sg56
(lp3816
g49
(g70
g51
NtRp3817
(dp3818
g54
(dp3819
sg63
g3813
sg56
(lp3820
g49
(g50
g51
NtRp3821
(dp3822
g54
(dp3823
g62
I3
ssg63
g3817
sg56
(lp3824
g49
(cgluon.html
SPAN
p3825
g51
NtRp3826
(dp3827
g54
(dp3828
g74
S'color:yellow'
p3829
ssg63
Nsg56
(lp3830
g3700
asbasbasbasbag49
(g65
g51
NtRp3831
(dp3832
g54
(dp3833
sg63
g3809
sg56
(lp3834
g49
(g70
g51
NtRp3835
(dp3836
g54
(dp3837
sg63
g3831
sg56
(lp3838
g49
(g50
g51
NtRp3839
(dp3840
g54
(dp3841
g62
I3
ssg63
g3835
sg56
(lp3842
g92
asbasbasbag49
(g65
g51
NtRp3843
(dp3844
g54
(dp3845
sg63
g3809
sg56
(lp3846
g49
(g70
g51
NtRp3847
(dp3848
g54
(dp3849
sg63
g3843
sg56
(lp3850
g49
(g50
g51
NtRp3851
(dp3852
g54
(dp3853
g62
I3
ssg63
g3847
sg56
(lp3854
S'http://web2py.com'
p3855
asbasbasbag49
(g65
g51
NtRp3856
(dp3857
g54
(dp3858
sg63
g3809
sg56
(lp3859
g49
(g70
g51
NtRp3860
(dp3861
g54
(dp3862
sg63
g3856
sg56
(lp3863
g49
(g50
g51
NtRp3864
(dp3865
g54
(dp3866
g62
I3
ssg63
g3860
sg56
(lp3867
g49
(g58
g51
NtRp3868
(dp3869
g54
(dp3870
g62
I2
ssg63
Nsg56
(lp3871
g49
(g65
g51
NtRp3872
(dp3873
g54
(dp3874
sg63
g3868
sg56
(lp3875
g49
(g70
g51
NtRp3876
(dp3877
g54
(dp3878
sg63
g3872
sg56
(lp3879
g49
(g50
g51
NtRp3880
(dp3881
g54
(dp3882
g62
I2
ssg63
g3876
sg56
(lp3883
g49
(g58
g51
NtRp3884
(dp3885
g54
(dp3886
g62
I1
ssg63
Nsg56
(lp3887
g49
(g65
g51
NtRp3888
(dp3889
g54
(dp3890
sg63
g3884
sg56
(lp3891
g49
(g70
g51
NtRp3892
(dp3893
g54
(dp3894
sg63
g3888
sg56
(lp3895
g49
(g50
g51
NtRp3896
(dp3897
g54
(dp3898
g62
I1
ssg63
g3892
sg56
(lp3899
g3754
(S's\x08\x00\x00\x00My Sites'
tRp3900
asbasbasbag49
(g65
g51
NtRp3901
(dp3902
g54
(dp3903
sg63
g3884
sg56
(lp3904
g49
(g70
g51
NtRp3905
(dp3906
g54
(dp3907
sg63
g3901
sg56
(lp3908
g49
(g50
g51
NtRp3909
(dp3910
g54
(dp3911
g62
I1
ssg63
g3905
sg56
(lp3912
I00
asbasbasbag49
(g65
g51
NtRp3913
(dp3914
g54
(dp3915
sg63
g3884
sg56
(lp3916
g49
(g70
g51
NtRp3917
(dp3918
g54
(dp3919
sg63
g3913
sg56
(lp3920
g49
(g50
g51
NtRp3921
(dp3922
g54
(dp3923
g62
I1
ssg63
g3917
sg56
(lp3924
S'/admin/default/site'
p3925
asbasbasbasbasbasbasbag49
(g65
g51
NtRp3926
(dp3927
g54
(dp3928
sg63
g3868
sg56
(lp3929
g49
(g70
g51
NtRp3930
(dp3931
g54
(dp3932
sg63
g3926
sg56
(lp3933
g49
(g50
g51
NtRp3934
(dp3935
g54
(dp3936
g62
I2
ssg63
g3930
sg56
(lp3937
g49
(g58
g51
NtRp3938
(dp3939
g54
(dp3940
g62
I1
ssg63
Nsg56
(lp3941
g49
(g65
g51
NtRp3942
(dp3943
g54
(dp3944
sg63
g3938
sg56
(lp3945
g49
(g70
g51
NtRp3946
(dp3947
g54
(dp3948
sg63
g3942
sg56
(lp3949
g49
(g50
g51
NtRp3950
(dp3951
g54
(dp3952
g62
I1
ssg63
g3946
sg56
(lp3953
g3754
(S's\x08\x00\x00\x00This App'
tRp3954
asbasbasbag49
(g65
g51
NtRp3955
(dp3956
g54
(dp3957
sg63
g3938
sg56
(lp3958
g49
(g70
g51
NtRp3959
(dp3960
g54
(dp3961
sg63
g3955
sg56
(lp3962
g49
(g50
g51
NtRp3963
(dp3964
g54
(dp3965
g62
I1
ssg63
g3959
sg56
(lp3966
I00
asbasbasbag49
(g65
g51
NtRp3967
(dp3968
g54
(dp3969
sg63
g3938
sg56
(lp3970
g49
(g70
g51
NtRp3971
(dp3972
g54
(dp3973
sg63
g3967
sg56
(lp3974
g49
(g50
g51
NtRp3975
(dp3976
g54
(dp3977
g62
I1
ssg63
g3971
sg56
(lp3978
S'/admin/default/design/183_Project'
p3979
asbasbasbag49
(g65
g51
NtRp3980
(dp3981
g54
(dp3982
sg63
g3938
sg56
(lp3983
g49
(g70
g51
NtRp3984
(dp3985
g54
(dp3986
sg63
g3980
sg56
(lp3987
g49
(g50
g51
NtRp3988
(dp3989
g54
(dp3990
g62
I1
ssg63
g3984
sg56
(lp3991
(lp3992
(g3754
(S't\n\x00\x00\x00Controller'
tRp3993
I00
S'/admin/default/edit/183_Project/controllers/default.py'
tp3994
a(g3754
(S't\x04\x00\x00\x00View'
tRp3995
I00
S'/admin/default/edit/183_Project/views/default/index.html'
tp3996
a(g3754
(S't\x06\x00\x00\x00Layout'
tRp3997
I00
S'/admin/default/edit/183_Project/views/layout.html'
tp3998
a(g3754
(S't\n\x00\x00\x00Stylesheet'
tRp3999
I00
S'/admin/default/edit/183_Project/static/css/web2py.css'
tp4000
a(g3754
(S's\x08\x00\x00\x00DB Model'
tRp4001
I00
S'/admin/default/edit/183_Project/models/db.py'
tp4002
a(g3754
(S's\n\x00\x00\x00Menu Model'
tRp4003
I00
S'/admin/default/edit/183_Project/models/menu.py'
tp4004
a(g3754
(S't\x08\x00\x00\x00Database'
tRp4005
I00
S'/183_Project/appadmin/index'
tp4006
a(g3754
(S't\x06\x00\x00\x00Errors'
tRp4007
I00
S'/admin/default/errors/183_Project'
tp4008
a(g3754
(S't\x05\x00\x00\x00About'
tRp4009
I00
S'/admin/default/about/183_Project'
tp4010
aasbasbasbasbasbasbasbag49
(g65
g51
NtRp4011
(dp4012
g54
(dp4013
sg63
g3868
sg56
(lp4014
g49
(g70
g51
NtRp4015
(dp4016
g54
(dp4017
sg63
g4011
sg56
(lp4018
g49
(g50
g51
NtRp4019
(dp4020
g54
(dp4021
g62
I2
ssg63
g4015
sg56
(lp4022
g49
(g58
g51
NtRp4023
(dp4024
g54
(dp4025
g62
I1
ssg63
Nsg56
(lp4026
g49
(g65
g51
NtRp4027
(dp4028
g54
(dp4029
sg63
g4023
sg56
(lp4030
g49
(g70
g51
NtRp4031
(dp4032
g54
(dp4033
sg63
g4027
sg56
(lp4034
g49
(g50
g51
NtRp4035
(dp4036
g54
(dp4037
g62
I1
ssg63
g4031
sg56
(lp4038
S'web2py.com'
p4039
asbasbasbag49
(g65
g51
NtRp4040
(dp4041
g54
(dp4042
sg63
g4023
sg56
(lp4043
g49
(g70
g51
NtRp4044
(dp4045
g54
(dp4046
sg63
g4040
sg56
(lp4047
g49
(g50
g51
NtRp4048
(dp4049
g54
(dp4050
g62
I1
ssg63
g4044
sg56
(lp4051
I00
asbasbasbag49
(g65
g51
NtRp4052
(dp4053
g54
(dp4054
sg63
g4023
sg56
(lp4055
g49
(g70
g51
NtRp4056
(dp4057
g54
(dp4058
sg63
g4052
sg56
(lp4059
g49
(g50
g51
NtRp4060
(dp4061
g54
(dp4062
g62
I1
ssg63
g4056
sg56
(lp4063
S'http://www.web2py.com'
p4064
asbasbasbag49
(g65
g51
NtRp4065
(dp4066
g54
(dp4067
sg63
g4023
sg56
(lp4068
g49
(g70
g51
NtRp4069
(dp4070
g54
(dp4071
sg63
g4065
sg56
(lp4072
g49
(g50
g51
NtRp4073
(dp4074
g54
(dp4075
g62
I1
ssg63
g4069
sg56
(lp4076
(lp4077
(g3754
(S't\x08\x00\x00\x00Download'
tRp4078
I00
S'http://www.web2py.com/examples/default/download'
p4079
tp4080
a(g3754
(S't\x07\x00\x00\x00Support'
tRp4081
I00
S'http://www.web2py.com/examples/default/support'
p4082
tp4083
a(g3754
(S't\x04\x00\x00\x00Demo'
tRp4084
I00
S'http://web2py.com/demo_admin'
p4085
tp4086
a(g3754
(S's\x0e\x00\x00\x00Quick Examples'
tRp4087
I00
S'http://web2py.com/examples/default/examples'
p4088
tp4089
a(g3754
(S't\x03\x00\x00\x00FAQ'
tRp4090
I00
S'http://web2py.com/AlterEgo'
p4091
tp4092
a(g3754
(S't\x06\x00\x00\x00Videos'
tRp4093
I00
S'http://www.web2py.com/examples/default/videos/'
p4094
tp4095
a(g3754
(S's\x11\x00\x00\x00Free Applications'
tRp4096
I00
S'http://web2py.com/appliances'
p4097
tp4098
a(g3754
(S't\x07\x00\x00\x00Plugins'
tRp4099
I00
S'http://web2py.com/plugins'
p4100
tp4101
a(g3754
(S't\x07\x00\x00\x00Layouts'
tRp4102
I00
S'http://web2py.com/layouts'
p4103
tp4104
a(g3754
(S't\x07\x00\x00\x00Recipes'
tRp4105
I00
S'http://web2pyslices.com/'
p4106
tp4107
a(g3754
(S't\x08\x00\x00\x00Semantic'
tRp4108
I00
S'http://web2py.com/semantic'
p4109
tp4110
aasbasbasbasbasbasbasbag49
(g65
g51
NtRp4111
(dp4112
g54
(dp4113
sg63
g3868
sg56
(lp4114
g49
(g70
g51
NtRp4115
(dp4116
g54
(dp4117
sg63
g4111
sg56
(lp4118
g49
(g50
g51
NtRp4119
(dp4120
g54
(dp4121
g62
I2
ssg63
g4115
sg56
(lp4122
g49
(g58
g51
NtRp4123
(dp4124
g54
(dp4125
g62
I1
ssg63
Nsg56
(lp4126
g49
(g65
g51
NtRp4127
(dp4128
g54
(dp4129
sg63
g4123
sg56
(lp4130
g49
(g70
g51
NtRp4131
(dp4132
g54
(dp4133
sg63
g4127
sg56
(lp4134
g49
(g50
g51
NtRp4135
(dp4136
g54
(dp4137
g62
I1
ssg63
g4131
sg56
(lp4138
g3754
(S't\r\x00\x00\x00Documentation'
tRp4139
asbasbasbag49
(g65
g51
NtRp4140
(dp4141
g54
(dp4142
sg63
g4123
sg56
(lp4143
g49
(g70
g51
NtRp4144
(dp4145
g54
(dp4146
sg63
g4140
sg56
(lp4147
g49
(g50
g51
NtRp4148
(dp4149
g54
(dp4150
g62
I1
ssg63
g4144
sg56
(lp4151
I00
asbasbasbag49
(g65
g51
NtRp4152
(dp4153
g54
(dp4154
sg63
g4123
sg56
(lp4155
g49
(g70
g51
NtRp4156
(dp4157
g54
(dp4158
sg63
g4152
sg56
(lp4159
g49
(g50
g51
NtRp4160
(dp4161
g54
(dp4162
g62
I1
ssg63
g4156
sg56
(lp4163
S'http://www.web2py.com/book'
p4164
asbasbasbag49
(g65
g51
NtRp4165
(dp4166
g54
(dp4167
sg63
g4123
sg56
(lp4168
g49
(g70
g51
NtRp4169
(dp4170
g54
(dp4171
sg63
g4165
sg56
(lp4172
g49
(g50
g51
NtRp4173
(dp4174
g54
(dp4175
g62
I1
ssg63
g4169
sg56
(lp4176
(lp4177
(g3754
(S't\x07\x00\x00\x00Preface'
tRp4178
I00
S'http://www.web2py.com/book/default/chapter/00'
p4179
tp4180
a(g3754
(S't\x0c\x00\x00\x00Introduction'
tRp4181
I00
S'http://www.web2py.com/book/default/chapter/01'
p4182
tp4183
a(g3754
(S't\x06\x00\x00\x00Python'
tRp4184
I00
S'http://www.web2py.com/book/default/chapter/02'
p4185
tp4186
a(g3754
(S't\x08\x00\x00\x00Overview'
tRp4187
I00
S'http://www.web2py.com/book/default/chapter/03'
p4188
tp4189
a(g3754
(S's\x08\x00\x00\x00The Core'
tRp4190
I00
S'http://www.web2py.com/book/default/chapter/04'
p4191
tp4192
a(g3754
(S's\t\x00\x00\x00The Views'
tRp4193
I00
S'http://www.web2py.com/book/default/chapter/05'
p4194
tp4195
a(g3754
(S't\x08\x00\x00\x00Database'
tRp4196
I00
S'http://www.web2py.com/book/default/chapter/06'
p4197
tp4198
a(g3754
(S's\x14\x00\x00\x00Forms and Validators'
tRp4199
I00
S'http://www.web2py.com/book/default/chapter/07'
p4200
tp4201
a(g3754
(S's\r\x00\x00\x00Email and SMS'
tRp4202
I00
S'http://www.web2py.com/book/default/chapter/08'
p4203
tp4204
a(g3754
(S's\x0e\x00\x00\x00Access Control'
tRp4205
I00
S'http://www.web2py.com/book/default/chapter/09'
p4206
tp4207
a(g3754
(S't\x08\x00\x00\x00Services'
tRp4208
I00
S'http://www.web2py.com/book/default/chapter/10'
p4209
tp4210
a(g3754
(S's\x0c\x00\x00\x00Ajax Recipes'
tRp4211
I00
S'http://www.web2py.com/book/default/chapter/11'
p4212
tp4213
a(g3754
(S's\x16\x00\x00\x00Components and Plugins'
tRp4214
I00
S'http://www.web2py.com/book/default/chapter/12'
p4215
tp4216
a(g3754
(S's\x12\x00\x00\x00Deployment Recipes'
tRp4217
I00
S'http://www.web2py.com/book/default/chapter/13'
p4218
tp4219
a(g3754
(S's\r\x00\x00\x00Other Recipes'
tRp4220
I00
S'http://www.web2py.com/book/default/chapter/14'
p4221
tp4222
a(g3754
(S's\r\x00\x00\x00Buy this book'
tRp4223
I00
S'http://stores.lulu.com/web2py'
p4224
tp4225
aasbasbasbasbasbasbasbag49
(g65
g51
NtRp4226
(dp4227
g54
(dp4228
sg63
g3868
sg56
(lp4229
g49
(g70
g51
NtRp4230
(dp4231
g54
(dp4232
sg63
g4226
sg56
(lp4233
g49
(g50
g51
NtRp4234
(dp4235
g54
(dp4236
g62
I2
ssg63
g4230
sg56
(lp4237
g49
(g58
g51
NtRp4238
(dp4239
g54
(dp4240
g62
I1
ssg63
Nsg56
(lp4241
g49
(g65
g51
NtRp4242
(dp4243
g54
(dp4244
sg63
g4238
sg56
(lp4245
g49
(g70
g51
NtRp4246
(dp4247
g54
(dp4248
sg63
g4242
sg56
(lp4249
g49
(g50
g51
NtRp4250
(dp4251
g54
(dp4252
g62
I1
ssg63
g4246
sg56
(lp4253
g3754
(S't\t\x00\x00\x00Community'
tRp4254
asbasbasbag49
(g65
g51
NtRp4255
(dp4256
g54
(dp4257
sg63
g4238
sg56
(lp4258
g49
(g70
g51
NtRp4259
(dp4260
g54
(dp4261
sg63
g4255
sg56
(lp4262
g49
(g50
g51
NtRp4263
(dp4264
g54
(dp4265
g62
I1
ssg63
g4259
sg56
(lp4266
I00
asbasbasbag49
(g65
g51
NtRp4267
(dp4268
g54
(dp4269
sg63
g4238
sg56
(lp4270
g49
(g70
g51
NtRp4271
(dp4272
g54
(dp4273
sg63
g4267
sg56
(lp4274
g49
(g50
g51
NtRp4275
(dp4276
g54
(dp4277
g62
I1
ssg63
g4271
sg56
(lp4278
Nasbasbasbag49
(g65
g51
NtRp4279
(dp4280
g54
(dp4281
sg63
g4238
sg56
(lp4282
g49
(g70
g51
NtRp4283
(dp4284
g54
(dp4285
sg63
g4279
sg56
(lp4286
g49
(g50
g51
NtRp4287
(dp4288
g54
(dp4289
g62
I1
ssg63
g4283
sg56
(lp4290
(lp4291
(g3754
(S't\x06\x00\x00\x00Groups'
tRp4292
I00
S'http://www.web2py.com/examples/default/usergroups'
p4293
tp4294
a(g3754
(S't\x07\x00\x00\x00Twitter'
tRp4295
I00
S'http://twitter.com/web2py'
p4296
tp4297
a(g3754
(S's\t\x00\x00\x00Live Chat'
tRp4298
I00
S'http://webchat.freenode.net/?channels=web2py'
p4299
tp4300
aasbasbasbasbasbasbasbag49
(g65
g51
NtRp4301
(dp4302
g54
(dp4303
sg63
g3868
sg56
(lp4304
g49
(g70
g51
NtRp4305
(dp4306
g54
(dp4307
sg63
g4301
sg56
(lp4308
g49
(g50
g51
NtRp4309
(dp4310
g54
(dp4311
g62
I2
ssg63
g4305
sg56
(lp4312
g49
(g58
g51
NtRp4313
(dp4314
g54
(dp4315
g62
I1
ssg63
Nsg56
(lp4316
g49
(g65
g51
NtRp4317
(dp4318
g54
(dp4319
sg63
g4313
sg56
(lp4320
g49
(g70
g51
NtRp4321
(dp4322
g54
(dp4323
sg63
g4317
sg56
(lp4324
g49
(g50
g51
NtRp4325
(dp4326
g54
(dp4327
g62
I1
ssg63
g4321
sg56
(lp4328
g3754
(S't\x07\x00\x00\x00Plugins'
tRp4329
asbasbasbag49
(g65
g51
NtRp4330
(dp4331
g54
(dp4332
sg63
g4313
sg56
(lp4333
g49
(g70
g51
NtRp4334
(dp4335
g54
(dp4336
sg63
g4330
sg56
(lp4337
g49
(g50
g51
NtRp4338
(dp4339
g54
(dp4340
g62
I1
ssg63
g4334
sg56
(lp4341
I00
asbasbasbag49
(g65
g51
NtRp4342
(dp4343
g54
(dp4344
sg63
g4313
sg56
(lp4345
g49
(g70
g51
NtRp4346
(dp4347
g54
(dp4348
sg63
g4342
sg56
(lp4349
g49
(g50
g51
NtRp4350
(dp4351
g54
(dp4352
g62
I1
ssg63
g4346
sg56
(lp4353
Nasbasbasbag49
(g65
g51
NtRp4354
(dp4355
g54
(dp4356
sg63
g4313
sg56
(lp4357
g49
(g70
g51
NtRp4358
(dp4359
g54
(dp4360
sg63
g4354
sg56
(lp4361
g49
(g50
g51
NtRp4362
(dp4363
g54
(dp4364
g62
I1
ssg63
g4358
sg56
(lp4365
(lp4366
(S'plugin_wiki'
p4367
I00
S'http://web2py.com/examples/default/download'
p4368
tp4369
a(g3754
(S's\r\x00\x00\x00Other Plugins'
tRp4370
I00
g4100
tp4371
a(g3754
(S's\x0e\x00\x00\x00Layout Plugins'
tRp4372
I00
g4103
tp4373
aasbasbasbasbasbasbasbasbasbasbasbasbasbasbasbasbasbasbasbag49
(g65
g51
NtRp4374
(dp4375
g54
(dp4376
sg63
g3283
sg56
(lp4377
g49
(g70
g51
NtRp4378
(dp4379
g54
(dp4380
g74
g75
ssg63
g4374
sg56
(lp4381
S'meta'
p4382
asbag49
(g70
g51
NtRp4383
(dp4384
g54
(dp4385
g81
g82
ssg63
g4374
sg56
(lp4386
S':'
asbag49
(g70
g51
NtRp4387
(dp4388
g54
(dp4389
sg63
g4374
sg56
(lp4390
g49
(g50
g51
NtRp4391
(dp4392
g54
(dp4393
g62
I5
ssg63
g4387
sg56
(lp4394
g49
(g58
g51
NtRp4395
(dp4396
g54
(dp4397
g62
I4
ssg63
Nsg56
(lp4398
g49
(g65
g51
NtRp4399
(dp4400
g54
(dp4401
sg63
g4395
sg56
(lp4402
g49
(g70
g51
NtRp4403
(dp4404
g54
(dp4405
g74
g75
ssg63
g4399
sg56
(lp4406
S'author'
p4407
asbag49
(g70
g51
NtRp4408
(dp4409
g54
(dp4410
g81
g82
ssg63
g4399
sg56
(lp4411
S':'
asbag49
(g70
g51
NtRp4412
(dp4413
g54
(dp4414
sg63
g4399
sg56
(lp4415
g49
(g50
g51
NtRp4416
(dp4417
g54
(dp4418
g62
I4
ssg63
g4412
sg56
(lp4419
S'Your Name <you@example.com>'
p4420
asbasbasbag49
(g65
g51
NtRp4421
(dp4422
g54
(dp4423
sg63
g4395
sg56
(lp4424
g49
(g70
g51
NtRp4425
(dp4426
g54
(dp4427
g74
g75
ssg63
g4421
sg56
(lp4428
S'description'
p4429
asbag49
(g70
g51
NtRp4430
(dp4431
g54
(dp4432
g81
g82
ssg63
g4421
sg56
(lp4433
S':'
asbag49
(g70
g51
NtRp4434
(dp4435
g54
(dp4436
sg63
g4421
sg56
(lp4437
g49
(g50
g51
NtRp4438
(dp4439
g54
(dp4440
g62
I4
ssg63
g4434
sg56
(lp4441
S'a cool new app'
p4442
asbasbasbag49
(g65
g51
NtRp4443
(dp4444
g54
(dp4445
sg63
g4395
sg56
(lp4446
g49
(g70
g51
NtRp4447
(dp4448
g54
(dp4449
g74
g75
ssg63
g4443
sg56
(lp4450
S'generator'
p4451
asbag49
(g70
g51
NtRp4452
(dp4453
g54
(dp4454
g81
g82
ssg63
g4443
sg56
(lp4455
S':'
asbag49
(g70
g51
NtRp4456
(dp4457
g54
(dp4458
sg63
g4443
sg56
(lp4459
g49
(g50
g51
NtRp4460
(dp4461
g54
(dp4462
g62
I4
ssg63
g4456
sg56
(lp4463
S'Web2py Web Framework'
p4464
asbasbasbag49
(g65
g51
NtRp4465
(dp4466
g54
(dp4467
sg63
g4395
sg56
(lp4468
g49
(g70
g51
NtRp4469
(dp4470
g54
(dp4471
g74
g75
ssg63
g4465
sg56
(lp4472
S'keywords'
p4473
asbag49
(g70
g51
NtRp4474
(dp4475
g54
(dp4476
g81
g82
ssg63
g4465
sg56
(lp4477
S':'
asbag49
(g70
g51
NtRp4478
(dp4479
g54
(dp4480
sg63
g4465
sg56
(lp4481
g49
(g50
g51
NtRp4482
(dp4483
g54
(dp4484
g62
I4
ssg63
g4478
sg56
(lp4485
S'web2py, python, framework'
p4486
asbasbasbasbasbasbasbag49
(g65
g51
NtRp4487
(dp4488
g54
(dp4489
sg63
g3283
sg56
(lp4490
g49
(g70
g51
NtRp4491
(dp4492
g54
(dp4493
g74
g75
ssg63
g4487
sg56
(lp4494
S'models_to_run'
p4495
asbag49
(g70
g51
NtRp4496
(dp4497
g54
(dp4498
g81
g82
ssg63
g4487
sg56
(lp4499
S':'
asbag49
(g70
g51
NtRp4500
(dp4501
g54
(dp4502
sg63
g4487
sg56
(lp4503
g49
(g50
g51
NtRp4504
(dp4505
g54
(dp4506
g62
I5
ssg63
g4500
sg56
(lp4507
g49
(g58
g51
NtRp4508
(dp4509
g54
(dp4510
g62
I4
ssg63
Nsg56
(lp4511
g49
(g65
g51
NtRp4512
(dp4513
g54
(dp4514
sg63
g4508
sg56
(lp4515
g49
(g70
g51
NtRp4516
(dp4517
g54
(dp4518
sg63
g4512
sg56
(lp4519
g49
(g50
g51
NtRp4520
(dp4521
g54
(dp4522
g62
I4
ssg63
g4516
sg56
(lp4523
S'^\\w+\\.py$'
p4524
asbasbasbag49
(g65
g51
NtRp4525
(dp4526
g54
(dp4527
sg63
g4508
sg56
(lp4528
g49
(g70
g51
NtRp4529
(dp4530
g54
(dp4531
sg63
g4525
sg56
(lp4532
g49
(g50
g51
NtRp4533
(dp4534
g54
(dp4535
g62
I4
ssg63
g4529
sg56
(lp4536
S'^default/\\w+\\.py$'
p4537
asbasbasbag49
(g65
g51
NtRp4538
(dp4539
g54
(dp4540
sg63
g4508
sg56
(lp4541
g49
(g70
g51
NtRp4542
(dp4543
g54
(dp4544
sg63
g4538
sg56
(lp4545
g49
(g50
g51
NtRp4546
(dp4547
g54
(dp4548
g62
I4
ssg63
g4542
sg56
(lp4549
S'^default/index/\\w+\\.py$'
p4550
asbasbasbasbasbasbasbag49
(g65
g51
NtRp4551
(dp4552
g54
(dp4553
sg63
g3283
sg56
(lp4554
g49
(g70
g51
NtRp4555
(dp4556
g54
(dp4557
g74
g75
ssg63
g4551
sg56
(lp4558
S'postprocessing'
p4559
asbag49
(g70
g51
NtRp4560
(dp4561
g54
(dp4562
g81
g82
ssg63
g4551
sg56
(lp4563
S':'
asbag49
(g70
g51
NtRp4564
(dp4565
g54
(dp4566
sg63
g4551
sg56
(lp4567
g49
(g50
g51
NtRp4568
(dp4569
g54
(dp4570
g62
I5
ssg63
g4564
sg56
(lp4571
g49
(g58
g51
NtRp4572
(dp4573
g54
(dp4574
g62
I4
ssg63
Nsg56
(lp4575
sbasbasbasbag49
(g65
g51
NtRp4576
(dp4577
g54
(dp4578
sg63
g3283
sg56
(lp4579
g49
(g70
g51
NtRp4580
(dp4581
g54
(dp4582
g74
g75
ssg63
g4576
sg56
(lp4583
S'session_filename'
p4584
asbag49
(g70
g51
NtRp4585
(dp4586
g54
(dp4587
g81
g82
ssg63
g4576
sg56
(lp4588
S':'
asbag49
(g70
g51
NtRp4589
(dp4590
g54
(dp4591
sg63
g4576
sg56
(lp4592
g49
(g50
g51
NtRp4593
(dp4594
g54
(dp4595
g62
I5
ssg63
g4589
sg56
(lp4596
S'/Applications/web2py.app/Contents/Resources/applications/183_Project/sessions/127.0.0.1-ddc8a5a5-fcda-435e-a06a-240b8e673665'
p4597
asbasbasbag49
(g65
g51
NtRp4598
(dp4599
g54
(dp4600
sg63
g3283
sg56
(lp4601
g49
(g70
g51
NtRp4602
(dp4603
g54
(dp4604
g74
g75
ssg63
g4598
sg56
(lp4605
S'session_id'
p4606
asbag49
(g70
g51
NtRp4607
(dp4608
g54
(dp4609
g81
g82
ssg63
g4598
sg56
(lp4610
S':'
asbag49
(g70
g51
NtRp4611
(dp4612
g54
(dp4613
sg63
g4598
sg56
(lp4614
g49
(g50
g51
NtRp4615
(dp4616
g54
(dp4617
g62
I5
ssg63
g4611
sg56
(lp4618
g3353
asbasbasbag49
(g65
g51
NtRp4619
(dp4620
g54
(dp4621
sg63
g3283
sg56
(lp4622
g49
(g70
g51
NtRp4623
(dp4624
g54
(dp4625
g74
g75
ssg63
g4619
sg56
(lp4626
S'session_id_name'
p4627
asbag49
(g70
g51
NtRp4628
(dp4629
g54
(dp4630
g81
g82
ssg63
g4619
sg56
(lp4631
S':'
asbag49
(g70
g51
NtRp4632
(dp4633
g54
(dp4634
sg63
g4619
sg56
(lp4635
g49
(g50
g51
NtRp4636
(dp4637
g54
(dp4638
g62
I5
ssg63
g4632
sg56
(lp4639
g3340
asbasbasbag49
(g65
g51
NtRp4640
(dp4641
g54
(dp4642
sg63
g3283
sg56
(lp4643
g49
(g70
g51
NtRp4644
(dp4645
g54
(dp4646
g74
g75
ssg63
g4640
sg56
(lp4647
S'session_new'
p4648
asbag49
(g70
g51
NtRp4649
(dp4650
g54
(dp4651
g81
g82
ssg63
g4640
sg56
(lp4652
S':'
asbag49
(g70
g51
NtRp4653
(dp4654
g54
(dp4655
sg63
g4640
sg56
(lp4656
g49
(g50
g51
NtRp4657
(dp4658
g54
(dp4659
g62
I5
ssg63
g4653
sg56
(lp4660
g1820
asbasbasbag49
(g65
g51
NtRp4661
(dp4662
g54
(dp4663
sg63
g3283
sg56
(lp4664
g49
(g70
g51
NtRp4665
(dp4666
g54
(dp4667
g74
g75
ssg63
g4661
sg56
(lp4668
S'status'
p4669
asbag49
(g70
g51
NtRp4670
(dp4671
g54
(dp4672
g81
g82
ssg63
g4661
sg56
(lp4673
S':'
asbag49
(g70
g51
NtRp4674
(dp4675
g54
(dp4676
sg63
g4661
sg56
(lp4677
g49
(g50
g51
NtRp4678
(dp4679
g54
(dp4680
g62
I5
ssg63
g4674
sg56
(lp4681
S'200'
p4682
asbasbasbag49
(g65
g51
NtRp4683
(dp4684
g54
(dp4685
sg63
g3283
sg56
(lp4686
g49
(g70
g51
NtRp4687
(dp4688
g54
(dp4689
g74
g75
ssg63
g4683
sg56
(lp4690
S'subtitle'
p4691
asbag49
(g70
g51
NtRp4692
(dp4693
g54
(dp4694
g81
g82
ssg63
g4683
sg56
(lp4695
S':'
asbag49
(g70
g51
NtRp4696
(dp4697
g54
(dp4698
sg63
g4683
sg56
(lp4699
g49
(g50
g51
NtRp4700
(dp4701
g54
(dp4702
g62
I5
ssg63
g4696
sg56
(lp4703
g3754
(S's\r\x00\x00\x00customize me!'
tRp4704
asbasbasbag49
(g65
g51
NtRp4705
(dp4706
g54
(dp4707
sg63
g3283
sg56
(lp4708
g49
(g70
g51
NtRp4709
(dp4710
g54
(dp4711
g74
g75
ssg63
g4705
sg56
(lp4712
S'title'
p4713
asbag49
(g70
g51
NtRp4714
(dp4715
g54
(dp4716
g81
g82
ssg63
g4705
sg56
(lp4717
S':'
asbag49
(g70
g51
NtRp4718
(dp4719
g54
(dp4720
sg63
g4705
sg56
(lp4721
g49
(g50
g51
NtRp4722
(dp4723
g54
(dp4724
g62
I5
ssg63
g4718
sg56
(lp4725
S'183 Project'
p4726
asbasbasbag49
(g65
g51
NtRp4727
(dp4728
g54
(dp4729
sg63
g3283
sg56
(lp4730
g49
(g70
g51
NtRp4731
(dp4732
g54
(dp4733
g74
g75
ssg63
g4727
sg56
(lp4734
S'view'
p4735
asbag49
(g70
g51
NtRp4736
(dp4737
g54
(dp4738
g81
g82
ssg63
g4727
sg56
(lp4739
S':'
asbag49
(g70
g51
NtRp4740
(dp4741
g54
(dp4742
sg63
g4727
sg56
(lp4743
g49
(g50
g51
NtRp4744
(dp4745
g54
(dp4746
g62
I5
ssg63
g4740
sg56
(lp4747
S'default/index.html'
p4748
asbasbasbasbasbsS'locals'
p4749
(dp4750
S'self'
p4751
S'<DAL sqlite://storage.sqlite>'
p4752
sS'key'
p4753
S"'clinic'"
p4754
sssS'traceback'
p4755
S'Traceback (most recent call last):\n  File "gluon/restricted.py", line 209, in restricted\n  File "/Applications/web2py.app/Contents/Resources/applications/183_Project/models/providers.py", line 13, in <module>\n  File "gluon/dal.py", line 7153, in __getattr__\nAttributeError: \'DAL\' object has no attribute \'clinic\'\n'
p4756
s.