(dp1
S'output'
p2
S"<type 'exceptions.AttributeError'> 'DAL' object has no attribute 'notes'"
p3
sS'layer'
p4
S'/Applications/web2py.app/Contents/Resources/applications/183_Project/controllers/default.py'
p5
sS'code'
p6
S'# -*- coding: utf-8 -*-\n# this file is released under public domain and you can use without limitations\n\n#########################################################################\n## This is a samples controller\n## - index is the default action of any application\n## - user is required for authentication and authorization\n## - download is for downloading files uploaded in the db (does streaming)\n## - call exposes all registered services (none by default)\n#########################################################################\n\ndef index():\n    """\n    example action using the internationalization operator T and flash\n    rendered by views/default/index.html or views/generic.html\n\n    if you need a simple wiki simple replace the two lines below with:\n    return auth.wiki()\n    """\n    clinics = db().select(db.clinics.ALL)\n    return dict(clinics=clinics)\n\ndef view():\n    clinic = db.clinics(request.args[0]) or redirect(URL(\'index\'))\n    return dict(clinic=clinic)\n\n@auth.requires_login()    \ndef edit():\n    form = SQLFORM(db.notes)\n    if form.process().accepted:\n        session.flash = T(\'Changes updated.\')\n        redirect(URL(\'index\'))\n    return dict(form=form)\n\ndef user():\n    """\n    exposes:\n    http://..../[app]/default/user/login\n    http://..../[app]/default/user/logout\n    http://..../[app]/default/user/register\n    http://..../[app]/default/user/profile\n    http://..../[app]/default/user/retrieve_password\n    http://..../[app]/default/user/change_password\n    use @auth.requires_login()\n        @auth.requires_membership(\'group name\')\n        @auth.requires_permission(\'read\',\'table name\',record_id)\n    to decorate functions that need access control\n    """\n    return dict(form=auth())\n\n\ndef download():\n    """\n    allows downloading of uploaded files\n    http://..../[app]/default/download/[filename]\n    """\n    return response.download(request,db)\n\n\ndef call():\n    """\n    exposes services. for example:\n    http://..../[app]/default/call/jsonrpc\n    decorate with @services.jsonrpc the functions to expose\n    supports xml, json, xmlrpc, jsonrpc, amfrpc, rss, csv\n    """\n    return service()\n\n\n@auth.requires_signature()\ndef data():\n    """\n    http://..../[app]/default/data/tables\n    http://..../[app]/default/data/create/[table]\n    http://..../[app]/default/data/read/[table]/[id]\n    http://..../[app]/default/data/update/[table]/[id]\n    http://..../[app]/default/data/delete/[table]/[id]\n    http://..../[app]/default/data/select/[table]\n    http://..../[app]/default/data/search/[table]\n    but URLs must be signed, i.e. linked with\n      A(\'table\',_href=URL(\'data/tables\',user_signature=True))\n    or with the signed load operator\n      LOAD(\'default\',\'data.load\',args=\'tables\',ajax=True,user_signature=True)\n    """\n    return dict(form=crud())\n\nresponse._vars=response._caller(edit)\n'
p7
sS'snapshot'
p8
(dp9
S'exception'
p10
(dp11
S'__hash__'
p12
S"<method-wrapper '__hash__' of exceptions.AttributeError object at 0xa2f27b0>"
p13
sS'__setattr__'
p14
S"<method-wrapper '__setattr__' of exceptions.AttributeError object at 0xa2f27b0>"
p15
sS'__reduce_ex__'
p16
S'<built-in method __reduce_ex__ of exceptions.AttributeError object at 0xa2f27b0>'
p17
sS'__getslice__'
p18
S"<method-wrapper '__getslice__' of exceptions.AttributeError object at 0xa2f27b0>"
p19
sS'__getitem__'
p20
S"<method-wrapper '__getitem__' of exceptions.AttributeError object at 0xa2f27b0>"
p21
sS'__setstate__'
p22
S'<built-in method __setstate__ of exceptions.AttributeError object at 0xa2f27b0>'
p23
sS'__reduce__'
p24
S'<built-in method __reduce__ of exceptions.AttributeError object at 0xa2f27b0>'
p25
sS'__str__'
p26
S"<method-wrapper '__str__' of exceptions.AttributeError object at 0xa2f27b0>"
p27
sS'args'
p28
S'("\'DAL\' object has no attribute \'notes\'",)'
p29
sS'__getattribute__'
p30
S"<method-wrapper '__getattribute__' of exceptions.AttributeError object at 0xa2f27b0>"
p31
sS'__class__'
p32
S"<type 'exceptions.AttributeError'>"
p33
sS'__delattr__'
p34
S"<method-wrapper '__delattr__' of exceptions.AttributeError object at 0xa2f27b0>"
p35
sS'__repr__'
p36
S"<method-wrapper '__repr__' of exceptions.AttributeError object at 0xa2f27b0>"
p37
sS'__dict__'
p38
S'{}'
p39
sS'__doc__'
p40
S"'Attribute not found.'"
p41
sS'__init__'
p42
S"<method-wrapper '__init__' of exceptions.AttributeError object at 0xa2f27b0>"
p43
sS'__new__'
p44
S'<built-in method __new__ of type object at 0x24f94a0>'
p45
ssS'evalue'
p46
S"'DAL' object has no attribute 'notes'"
p47
sS'request'
p48
ccopy_reg
_reconstructor
p49
(cgluon.html
BEAUTIFY
p50
c__builtin__
object
p51
NtRp52
(dp53
S'attributes'
p54
(dp55
sS'components'
p56
(lp57
g49
(cgluon.html
TABLE
p58
g51
NtRp59
(dp60
g54
(dp61
S'level'
p62
I5
ssS'parent'
p63
Nsg56
(lp64
g49
(cgluon.html
TR
p65
g51
NtRp66
(dp67
g54
(dp68
sg63
g59
sg56
(lp69
g49
(cgluon.html
TD
p70
g51
NtRp71
(dp72
g54
(dp73
S'_style'
p74
S'font-weight:bold;vertical-align:top'
p75
ssg63
g66
sg56
(lp76
S'ajax'
p77
asbag49
(g70
g51
NtRp78
(dp79
g54
(dp80
S'_valign'
p81
S'top'
p82
ssg63
g66
sg56
(lp83
S':'
asbag49
(g70
g51
NtRp84
(dp85
g54
(dp86
sg63
g66
sg56
(lp87
g49
(g50
g51
NtRp88
(dp89
g54
(dp90
g62
I5
ssg63
g84
sg56
(lp91
S'False'
p92
asbasbasbag49
(g65
g51
NtRp93
(dp94
g54
(dp95
sg63
g59
sg56
(lp96
g49
(g70
g51
NtRp97
(dp98
g54
(dp99
g74
g75
ssg63
g93
sg56
(lp100
S'application'
p101
asbag49
(g70
g51
NtRp102
(dp103
g54
(dp104
g81
g82
ssg63
g93
sg56
(lp105
S':'
asbag49
(g70
g51
NtRp106
(dp107
g54
(dp108
sg63
g93
sg56
(lp109
g49
(g50
g51
NtRp110
(dp111
g54
(dp112
g62
I5
ssg63
g106
sg56
(lp113
S'183_Project'
p114
asbasbasbag49
(g65
g51
NtRp115
(dp116
g54
(dp117
sg63
g59
sg56
(lp118
g49
(g70
g51
NtRp119
(dp120
g54
(dp121
g74
g75
ssg63
g115
sg56
(lp122
g28
asbag49
(g70
g51
NtRp123
(dp124
g54
(dp125
g81
g82
ssg63
g115
sg56
(lp126
S':'
asbag49
(g70
g51
NtRp127
(dp128
g54
(dp129
sg63
g115
sg56
(lp130
g49
(g50
g51
NtRp131
(dp132
g54
(dp133
g62
I5
ssg63
g127
sg56
(lp134
g49
(g58
g51
NtRp135
(dp136
g54
(dp137
g62
I4
ssg63
Nsg56
(lp138
sbasbasbasbag49
(g65
g51
NtRp139
(dp140
g54
(dp141
sg63
g59
sg56
(lp142
g49
(g70
g51
NtRp143
(dp144
g54
(dp145
g74
g75
ssg63
g139
sg56
(lp146
S'body'
p147
asbag49
(g70
g51
NtRp148
(dp149
g54
(dp150
g81
g82
ssg63
g139
sg56
(lp151
S':'
asbag49
(g70
g51
NtRp152
(dp153
g54
(dp154
sg63
g139
sg56
(lp155
g49
(g50
g51
NtRp156
(dp157
g54
(dp158
g62
I5
ssg63
g152
sg56
(lp159
S'<cStringIO.StringO object at 0xa3f00e0>'
p160
asbasbasbag49
(g65
g51
NtRp161
(dp162
g54
(dp163
sg63
g59
sg56
(lp164
g49
(g70
g51
NtRp165
(dp166
g54
(dp167
g74
g75
ssg63
g161
sg56
(lp168
S'cid'
p169
asbag49
(g70
g51
NtRp170
(dp171
g54
(dp172
g81
g82
ssg63
g161
sg56
(lp173
S':'
asbag49
(g70
g51
NtRp174
(dp175
g54
(dp176
sg63
g161
sg56
(lp177
g49
(g50
g51
NtRp178
(dp179
g54
(dp180
g62
I5
ssg63
g174
sg56
(lp181
S'None'
p182
asbasbasbag49
(g65
g51
NtRp183
(dp184
g54
(dp185
sg63
g59
sg56
(lp186
g49
(g70
g51
NtRp187
(dp188
g54
(dp189
g74
g75
ssg63
g183
sg56
(lp190
S'client'
p191
asbag49
(g70
g51
NtRp192
(dp193
g54
(dp194
g81
g82
ssg63
g183
sg56
(lp195
S':'
asbag49
(g70
g51
NtRp196
(dp197
g54
(dp198
sg63
g183
sg56
(lp199
g49
(g50
g51
NtRp200
(dp201
g54
(dp202
g62
I5
ssg63
g196
sg56
(lp203
S'127.0.0.1'
p204
asbasbasbag49
(g65
g51
NtRp205
(dp206
g54
(dp207
sg63
g59
sg56
(lp208
g49
(g70
g51
NtRp209
(dp210
g54
(dp211
g74
g75
ssg63
g205
sg56
(lp212
S'controller'
p213
asbag49
(g70
g51
NtRp214
(dp215
g54
(dp216
g81
g82
ssg63
g205
sg56
(lp217
S':'
asbag49
(g70
g51
NtRp218
(dp219
g54
(dp220
sg63
g205
sg56
(lp221
g49
(g50
g51
NtRp222
(dp223
g54
(dp224
g62
I5
ssg63
g218
sg56
(lp225
S'default'
p226
asbasbasbag49
(g65
g51
NtRp227
(dp228
g54
(dp229
sg63
g59
sg56
(lp230
g49
(g70
g51
NtRp231
(dp232
g54
(dp233
g74
g75
ssg63
g227
sg56
(lp234
S'cookies'
p235
asbag49
(g70
g51
NtRp236
(dp237
g54
(dp238
g81
g82
ssg63
g227
sg56
(lp239
S':'
asbag49
(g70
g51
NtRp240
(dp241
g54
(dp242
sg63
g227
sg56
(lp243
g49
(g50
g51
NtRp244
(dp245
g54
(dp246
g62
I5
ssg63
g240
sg56
(lp247
g49
(g58
g51
NtRp248
(dp249
g54
(dp250
g62
I4
ssg63
Nsg56
(lp251
g49
(g65
g51
NtRp252
(dp253
g54
(dp254
sg63
g248
sg56
(lp255
g49
(g70
g51
NtRp256
(dp257
g54
(dp258
g74
g75
ssg63
g252
sg56
(lp259
S'session_id_183_project'
p260
asbag49
(g70
g51
NtRp261
(dp262
g54
(dp263
g81
g82
ssg63
g252
sg56
(lp264
S':'
asbag49
(g70
g51
NtRp265
(dp266
g54
(dp267
sg63
g252
sg56
(lp268
g49
(g50
g51
NtRp269
(dp270
g54
(dp271
g62
I4
ssg63
g265
sg56
(lp272
S'127.0.0.1-c8abb2ee-6092-4cbf-9634-5374f4190b06'
p273
ag49
(g58
g51
NtRp274
(dp275
g54
(dp276
g62
I3
ssg63
Nsg56
(lp277
g49
(g65
g51
NtRp278
(dp279
g54
(dp280
sg63
g274
sg56
(lp281
g49
(g70
g51
NtRp282
(dp283
g54
(dp284
g74
g75
ssg63
g278
sg56
(lp285
S'comment'
p286
asbag49
(g70
g51
NtRp287
(dp288
g54
(dp289
g81
g82
ssg63
g278
sg56
(lp290
S':'
asbag49
(g70
g51
NtRp291
(dp292
g54
(dp293
sg63
g278
sg56
(lp294
g49
(g50
g51
NtRp295
(dp296
g54
(dp297
g62
I3
ssg63
g291
sg56
(lp298
S''
asbasbasbag49
(g65
g51
NtRp299
(dp300
g54
(dp301
sg63
g274
sg56
(lp302
g49
(g70
g51
NtRp303
(dp304
g54
(dp305
g74
g75
ssg63
g299
sg56
(lp306
S'domain'
p307
asbag49
(g70
g51
NtRp308
(dp309
g54
(dp310
g81
g82
ssg63
g299
sg56
(lp311
S':'
asbag49
(g70
g51
NtRp312
(dp313
g54
(dp314
sg63
g299
sg56
(lp315
g49
(g50
g51
NtRp316
(dp317
g54
(dp318
g62
I3
ssg63
g312
sg56
(lp319
S''
asbasbasbag49
(g65
g51
NtRp320
(dp321
g54
(dp322
sg63
g274
sg56
(lp323
g49
(g70
g51
NtRp324
(dp325
g54
(dp326
g74
g75
ssg63
g320
sg56
(lp327
S'expires'
p328
asbag49
(g70
g51
NtRp329
(dp330
g54
(dp331
g81
g82
ssg63
g320
sg56
(lp332
S':'
asbag49
(g70
g51
NtRp333
(dp334
g54
(dp335
sg63
g320
sg56
(lp336
g49
(g50
g51
NtRp337
(dp338
g54
(dp339
g62
I3
ssg63
g333
sg56
(lp340
S''
asbasbasbag49
(g65
g51
NtRp341
(dp342
g54
(dp343
sg63
g274
sg56
(lp344
g49
(g70
g51
NtRp345
(dp346
g54
(dp347
g74
g75
ssg63
g341
sg56
(lp348
S'max-age'
p349
asbag49
(g70
g51
NtRp350
(dp351
g54
(dp352
g81
g82
ssg63
g341
sg56
(lp353
S':'
asbag49
(g70
g51
NtRp354
(dp355
g54
(dp356
sg63
g341
sg56
(lp357
g49
(g50
g51
NtRp358
(dp359
g54
(dp360
g62
I3
ssg63
g354
sg56
(lp361
S''
asbasbasbag49
(g65
g51
NtRp362
(dp363
g54
(dp364
sg63
g274
sg56
(lp365
g49
(g70
g51
NtRp366
(dp367
g54
(dp368
g74
g75
ssg63
g362
sg56
(lp369
S'path'
p370
asbag49
(g70
g51
NtRp371
(dp372
g54
(dp373
g81
g82
ssg63
g362
sg56
(lp374
S':'
asbag49
(g70
g51
NtRp375
(dp376
g54
(dp377
sg63
g362
sg56
(lp378
g49
(g50
g51
NtRp379
(dp380
g54
(dp381
g62
I3
ssg63
g375
sg56
(lp382
S''
asbasbasbag49
(g65
g51
NtRp383
(dp384
g54
(dp385
sg63
g274
sg56
(lp386
g49
(g70
g51
NtRp387
(dp388
g54
(dp389
g74
g75
ssg63
g383
sg56
(lp390
S'secure'
p391
asbag49
(g70
g51
NtRp392
(dp393
g54
(dp394
g81
g82
ssg63
g383
sg56
(lp395
S':'
asbag49
(g70
g51
NtRp396
(dp397
g54
(dp398
sg63
g383
sg56
(lp399
g49
(g50
g51
NtRp400
(dp401
g54
(dp402
g62
I3
ssg63
g396
sg56
(lp403
S''
asbasbasbag49
(g65
g51
NtRp404
(dp405
g54
(dp406
sg63
g274
sg56
(lp407
g49
(g70
g51
NtRp408
(dp409
g54
(dp410
g74
g75
ssg63
g404
sg56
(lp411
S'version'
p412
asbag49
(g70
g51
NtRp413
(dp414
g54
(dp415
g81
g82
ssg63
g404
sg56
(lp416
S':'
asbag49
(g70
g51
NtRp417
(dp418
g54
(dp419
sg63
g404
sg56
(lp420
g49
(g50
g51
NtRp421
(dp422
g54
(dp423
g62
I3
ssg63
g417
sg56
(lp424
S''
asbasbasbasbasbasbasbag49
(g65
g51
NtRp425
(dp426
g54
(dp427
sg63
g248
sg56
(lp428
g49
(g70
g51
NtRp429
(dp430
g54
(dp431
g74
g75
ssg63
g425
sg56
(lp432
S'session_id_admin'
p433
asbag49
(g70
g51
NtRp434
(dp435
g54
(dp436
g81
g82
ssg63
g425
sg56
(lp437
S':'
asbag49
(g70
g51
NtRp438
(dp439
g54
(dp440
sg63
g425
sg56
(lp441
g49
(g50
g51
NtRp442
(dp443
g54
(dp444
g62
I4
ssg63
g438
sg56
(lp445
S'127.0.0.1-50f7bc6a-5dd0-46a8-ad8a-54e99554f427'
p446
ag49
(g58
g51
NtRp447
(dp448
g54
(dp449
g62
I3
ssg63
Nsg56
(lp450
g49
(g65
g51
NtRp451
(dp452
g54
(dp453
sg63
g447
sg56
(lp454
g49
(g70
g51
NtRp455
(dp456
g54
(dp457
g74
g75
ssg63
g451
sg56
(lp458
g286
asbag49
(g70
g51
NtRp459
(dp460
g54
(dp461
g81
g82
ssg63
g451
sg56
(lp462
S':'
asbag49
(g70
g51
NtRp463
(dp464
g54
(dp465
sg63
g451
sg56
(lp466
g49
(g50
g51
NtRp467
(dp468
g54
(dp469
g62
I3
ssg63
g463
sg56
(lp470
S''
asbasbasbag49
(g65
g51
NtRp471
(dp472
g54
(dp473
sg63
g447
sg56
(lp474
g49
(g70
g51
NtRp475
(dp476
g54
(dp477
g74
g75
ssg63
g471
sg56
(lp478
g307
asbag49
(g70
g51
NtRp479
(dp480
g54
(dp481
g81
g82
ssg63
g471
sg56
(lp482
S':'
asbag49
(g70
g51
NtRp483
(dp484
g54
(dp485
sg63
g471
sg56
(lp486
g49
(g50
g51
NtRp487
(dp488
g54
(dp489
g62
I3
ssg63
g483
sg56
(lp490
S''
asbasbasbag49
(g65
g51
NtRp491
(dp492
g54
(dp493
sg63
g447
sg56
(lp494
g49
(g70
g51
NtRp495
(dp496
g54
(dp497
g74
g75
ssg63
g491
sg56
(lp498
g328
asbag49
(g70
g51
NtRp499
(dp500
g54
(dp501
g81
g82
ssg63
g491
sg56
(lp502
S':'
asbag49
(g70
g51
NtRp503
(dp504
g54
(dp505
sg63
g491
sg56
(lp506
g49
(g50
g51
NtRp507
(dp508
g54
(dp509
g62
I3
ssg63
g503
sg56
(lp510
S''
asbasbasbag49
(g65
g51
NtRp511
(dp512
g54
(dp513
sg63
g447
sg56
(lp514
g49
(g70
g51
NtRp515
(dp516
g54
(dp517
g74
g75
ssg63
g511
sg56
(lp518
g349
asbag49
(g70
g51
NtRp519
(dp520
g54
(dp521
g81
g82
ssg63
g511
sg56
(lp522
S':'
asbag49
(g70
g51
NtRp523
(dp524
g54
(dp525
sg63
g511
sg56
(lp526
g49
(g50
g51
NtRp527
(dp528
g54
(dp529
g62
I3
ssg63
g523
sg56
(lp530
S''
asbasbasbag49
(g65
g51
NtRp531
(dp532
g54
(dp533
sg63
g447
sg56
(lp534
g49
(g70
g51
NtRp535
(dp536
g54
(dp537
g74
g75
ssg63
g531
sg56
(lp538
g370
asbag49
(g70
g51
NtRp539
(dp540
g54
(dp541
g81
g82
ssg63
g531
sg56
(lp542
S':'
asbag49
(g70
g51
NtRp543
(dp544
g54
(dp545
sg63
g531
sg56
(lp546
g49
(g50
g51
NtRp547
(dp548
g54
(dp549
g62
I3
ssg63
g543
sg56
(lp550
S''
asbasbasbag49
(g65
g51
NtRp551
(dp552
g54
(dp553
sg63
g447
sg56
(lp554
g49
(g70
g51
NtRp555
(dp556
g54
(dp557
g74
g75
ssg63
g551
sg56
(lp558
g391
asbag49
(g70
g51
NtRp559
(dp560
g54
(dp561
g81
g82
ssg63
g551
sg56
(lp562
S':'
asbag49
(g70
g51
NtRp563
(dp564
g54
(dp565
sg63
g551
sg56
(lp566
g49
(g50
g51
NtRp567
(dp568
g54
(dp569
g62
I3
ssg63
g563
sg56
(lp570
S''
asbasbasbag49
(g65
g51
NtRp571
(dp572
g54
(dp573
sg63
g447
sg56
(lp574
g49
(g70
g51
NtRp575
(dp576
g54
(dp577
g74
g75
ssg63
g571
sg56
(lp578
g412
asbag49
(g70
g51
NtRp579
(dp580
g54
(dp581
g81
g82
ssg63
g571
sg56
(lp582
S':'
asbag49
(g70
g51
NtRp583
(dp584
g54
(dp585
sg63
g571
sg56
(lp586
g49
(g50
g51
NtRp587
(dp588
g54
(dp589
g62
I3
ssg63
g583
sg56
(lp590
S''
asbasbasbasbasbasbasbag49
(g65
g51
NtRp591
(dp592
g54
(dp593
sg63
g248
sg56
(lp594
g49
(g70
g51
NtRp595
(dp596
g54
(dp597
g74
g75
ssg63
g591
sg56
(lp598
S'session_id_hw1'
p599
asbag49
(g70
g51
NtRp600
(dp601
g54
(dp602
g81
g82
ssg63
g591
sg56
(lp603
S':'
asbag49
(g70
g51
NtRp604
(dp605
g54
(dp606
sg63
g591
sg56
(lp607
g49
(g50
g51
NtRp608
(dp609
g54
(dp610
g62
I4
ssg63
g604
sg56
(lp611
S'127.0.0.1-c1ab893d-5a98-4c2d-b248-26b8a25ad648'
p612
ag49
(g58
g51
NtRp613
(dp614
g54
(dp615
g62
I3
ssg63
Nsg56
(lp616
g49
(g65
g51
NtRp617
(dp618
g54
(dp619
sg63
g613
sg56
(lp620
g49
(g70
g51
NtRp621
(dp622
g54
(dp623
g74
g75
ssg63
g617
sg56
(lp624
g286
asbag49
(g70
g51
NtRp625
(dp626
g54
(dp627
g81
g82
ssg63
g617
sg56
(lp628
S':'
asbag49
(g70
g51
NtRp629
(dp630
g54
(dp631
sg63
g617
sg56
(lp632
g49
(g50
g51
NtRp633
(dp634
g54
(dp635
g62
I3
ssg63
g629
sg56
(lp636
S''
asbasbasbag49
(g65
g51
NtRp637
(dp638
g54
(dp639
sg63
g613
sg56
(lp640
g49
(g70
g51
NtRp641
(dp642
g54
(dp643
g74
g75
ssg63
g637
sg56
(lp644
g307
asbag49
(g70
g51
NtRp645
(dp646
g54
(dp647
g81
g82
ssg63
g637
sg56
(lp648
S':'
asbag49
(g70
g51
NtRp649
(dp650
g54
(dp651
sg63
g637
sg56
(lp652
g49
(g50
g51
NtRp653
(dp654
g54
(dp655
g62
I3
ssg63
g649
sg56
(lp656
S''
asbasbasbag49
(g65
g51
NtRp657
(dp658
g54
(dp659
sg63
g613
sg56
(lp660
g49
(g70
g51
NtRp661
(dp662
g54
(dp663
g74
g75
ssg63
g657
sg56
(lp664
g328
asbag49
(g70
g51
NtRp665
(dp666
g54
(dp667
g81
g82
ssg63
g657
sg56
(lp668
S':'
asbag49
(g70
g51
NtRp669
(dp670
g54
(dp671
sg63
g657
sg56
(lp672
g49
(g50
g51
NtRp673
(dp674
g54
(dp675
g62
I3
ssg63
g669
sg56
(lp676
S''
asbasbasbag49
(g65
g51
NtRp677
(dp678
g54
(dp679
sg63
g613
sg56
(lp680
g49
(g70
g51
NtRp681
(dp682
g54
(dp683
g74
g75
ssg63
g677
sg56
(lp684
g349
asbag49
(g70
g51
NtRp685
(dp686
g54
(dp687
g81
g82
ssg63
g677
sg56
(lp688
S':'
asbag49
(g70
g51
NtRp689
(dp690
g54
(dp691
sg63
g677
sg56
(lp692
g49
(g50
g51
NtRp693
(dp694
g54
(dp695
g62
I3
ssg63
g689
sg56
(lp696
S''
asbasbasbag49
(g65
g51
NtRp697
(dp698
g54
(dp699
sg63
g613
sg56
(lp700
g49
(g70
g51
NtRp701
(dp702
g54
(dp703
g74
g75
ssg63
g697
sg56
(lp704
g370
asbag49
(g70
g51
NtRp705
(dp706
g54
(dp707
g81
g82
ssg63
g697
sg56
(lp708
S':'
asbag49
(g70
g51
NtRp709
(dp710
g54
(dp711
sg63
g697
sg56
(lp712
g49
(g50
g51
NtRp713
(dp714
g54
(dp715
g62
I3
ssg63
g709
sg56
(lp716
S''
asbasbasbag49
(g65
g51
NtRp717
(dp718
g54
(dp719
sg63
g613
sg56
(lp720
g49
(g70
g51
NtRp721
(dp722
g54
(dp723
g74
g75
ssg63
g717
sg56
(lp724
g391
asbag49
(g70
g51
NtRp725
(dp726
g54
(dp727
g81
g82
ssg63
g717
sg56
(lp728
S':'
asbag49
(g70
g51
NtRp729
(dp730
g54
(dp731
sg63
g717
sg56
(lp732
g49
(g50
g51
NtRp733
(dp734
g54
(dp735
g62
I3
ssg63
g729
sg56
(lp736
S''
asbasbasbag49
(g65
g51
NtRp737
(dp738
g54
(dp739
sg63
g613
sg56
(lp740
g49
(g70
g51
NtRp741
(dp742
g54
(dp743
g74
g75
ssg63
g737
sg56
(lp744
g412
asbag49
(g70
g51
NtRp745
(dp746
g54
(dp747
g81
g82
ssg63
g737
sg56
(lp748
S':'
asbag49
(g70
g51
NtRp749
(dp750
g54
(dp751
sg63
g737
sg56
(lp752
g49
(g50
g51
NtRp753
(dp754
g54
(dp755
g62
I3
ssg63
g749
sg56
(lp756
S''
asbasbasbasbasbasbasbag49
(g65
g51
NtRp757
(dp758
g54
(dp759
sg63
g248
sg56
(lp760
g49
(g70
g51
NtRp761
(dp762
g54
(dp763
g74
g75
ssg63
g757
sg56
(lp764
S'session_id_project'
p765
asbag49
(g70
g51
NtRp766
(dp767
g54
(dp768
g81
g82
ssg63
g757
sg56
(lp769
S':'
asbag49
(g70
g51
NtRp770
(dp771
g54
(dp772
sg63
g757
sg56
(lp773
g49
(g50
g51
NtRp774
(dp775
g54
(dp776
g62
I4
ssg63
g770
sg56
(lp777
S'127.0.0.1-5e79944d-406f-43cf-b132-a365dfc2f67c'
p778
ag49
(g58
g51
NtRp779
(dp780
g54
(dp781
g62
I3
ssg63
Nsg56
(lp782
g49
(g65
g51
NtRp783
(dp784
g54
(dp785
sg63
g779
sg56
(lp786
g49
(g70
g51
NtRp787
(dp788
g54
(dp789
g74
g75
ssg63
g783
sg56
(lp790
g286
asbag49
(g70
g51
NtRp791
(dp792
g54
(dp793
g81
g82
ssg63
g783
sg56
(lp794
S':'
asbag49
(g70
g51
NtRp795
(dp796
g54
(dp797
sg63
g783
sg56
(lp798
g49
(g50
g51
NtRp799
(dp800
g54
(dp801
g62
I3
ssg63
g795
sg56
(lp802
S''
asbasbasbag49
(g65
g51
NtRp803
(dp804
g54
(dp805
sg63
g779
sg56
(lp806
g49
(g70
g51
NtRp807
(dp808
g54
(dp809
g74
g75
ssg63
g803
sg56
(lp810
g307
asbag49
(g70
g51
NtRp811
(dp812
g54
(dp813
g81
g82
ssg63
g803
sg56
(lp814
S':'
asbag49
(g70
g51
NtRp815
(dp816
g54
(dp817
sg63
g803
sg56
(lp818
g49
(g50
g51
NtRp819
(dp820
g54
(dp821
g62
I3
ssg63
g815
sg56
(lp822
S''
asbasbasbag49
(g65
g51
NtRp823
(dp824
g54
(dp825
sg63
g779
sg56
(lp826
g49
(g70
g51
NtRp827
(dp828
g54
(dp829
g74
g75
ssg63
g823
sg56
(lp830
g328
asbag49
(g70
g51
NtRp831
(dp832
g54
(dp833
g81
g82
ssg63
g823
sg56
(lp834
S':'
asbag49
(g70
g51
NtRp835
(dp836
g54
(dp837
sg63
g823
sg56
(lp838
g49
(g50
g51
NtRp839
(dp840
g54
(dp841
g62
I3
ssg63
g835
sg56
(lp842
S''
asbasbasbag49
(g65
g51
NtRp843
(dp844
g54
(dp845
sg63
g779
sg56
(lp846
g49
(g70
g51
NtRp847
(dp848
g54
(dp849
g74
g75
ssg63
g843
sg56
(lp850
g349
asbag49
(g70
g51
NtRp851
(dp852
g54
(dp853
g81
g82
ssg63
g843
sg56
(lp854
S':'
asbag49
(g70
g51
NtRp855
(dp856
g54
(dp857
sg63
g843
sg56
(lp858
g49
(g50
g51
NtRp859
(dp860
g54
(dp861
g62
I3
ssg63
g855
sg56
(lp862
S''
asbasbasbag49
(g65
g51
NtRp863
(dp864
g54
(dp865
sg63
g779
sg56
(lp866
g49
(g70
g51
NtRp867
(dp868
g54
(dp869
g74
g75
ssg63
g863
sg56
(lp870
g370
asbag49
(g70
g51
NtRp871
(dp872
g54
(dp873
g81
g82
ssg63
g863
sg56
(lp874
S':'
asbag49
(g70
g51
NtRp875
(dp876
g54
(dp877
sg63
g863
sg56
(lp878
g49
(g50
g51
NtRp879
(dp880
g54
(dp881
g62
I3
ssg63
g875
sg56
(lp882
S''
asbasbasbag49
(g65
g51
NtRp883
(dp884
g54
(dp885
sg63
g779
sg56
(lp886
g49
(g70
g51
NtRp887
(dp888
g54
(dp889
g74
g75
ssg63
g883
sg56
(lp890
g391
asbag49
(g70
g51
NtRp891
(dp892
g54
(dp893
g81
g82
ssg63
g883
sg56
(lp894
S':'
asbag49
(g70
g51
NtRp895
(dp896
g54
(dp897
sg63
g883
sg56
(lp898
g49
(g50
g51
NtRp899
(dp900
g54
(dp901
g62
I3
ssg63
g895
sg56
(lp902
S''
asbasbasbag49
(g65
g51
NtRp903
(dp904
g54
(dp905
sg63
g779
sg56
(lp906
g49
(g70
g51
NtRp907
(dp908
g54
(dp909
g74
g75
ssg63
g903
sg56
(lp910
g412
asbag49
(g70
g51
NtRp911
(dp912
g54
(dp913
g81
g82
ssg63
g903
sg56
(lp914
S':'
asbag49
(g70
g51
NtRp915
(dp916
g54
(dp917
sg63
g903
sg56
(lp918
g49
(g50
g51
NtRp919
(dp920
g54
(dp921
g62
I3
ssg63
g915
sg56
(lp922
S''
asbasbasbasbasbasbasbag49
(g65
g51
NtRp923
(dp924
g54
(dp925
sg63
g248
sg56
(lp926
g49
(g70
g51
NtRp927
(dp928
g54
(dp929
g74
g75
ssg63
g923
sg56
(lp930
S'session_id_welcome'
p931
asbag49
(g70
g51
NtRp932
(dp933
g54
(dp934
g81
g82
ssg63
g923
sg56
(lp935
S':'
asbag49
(g70
g51
NtRp936
(dp937
g54
(dp938
sg63
g923
sg56
(lp939
g49
(g50
g51
NtRp940
(dp941
g54
(dp942
g62
I4
ssg63
g936
sg56
(lp943
S'127.0.0.1-7974756f-c4aa-4df6-9174-0fcad796dda3'
p944
ag49
(g58
g51
NtRp945
(dp946
g54
(dp947
g62
I3
ssg63
Nsg56
(lp948
g49
(g65
g51
NtRp949
(dp950
g54
(dp951
sg63
g945
sg56
(lp952
g49
(g70
g51
NtRp953
(dp954
g54
(dp955
g74
g75
ssg63
g949
sg56
(lp956
g286
asbag49
(g70
g51
NtRp957
(dp958
g54
(dp959
g81
g82
ssg63
g949
sg56
(lp960
S':'
asbag49
(g70
g51
NtRp961
(dp962
g54
(dp963
sg63
g949
sg56
(lp964
g49
(g50
g51
NtRp965
(dp966
g54
(dp967
g62
I3
ssg63
g961
sg56
(lp968
S''
asbasbasbag49
(g65
g51
NtRp969
(dp970
g54
(dp971
sg63
g945
sg56
(lp972
g49
(g70
g51
NtRp973
(dp974
g54
(dp975
g74
g75
ssg63
g969
sg56
(lp976
g307
asbag49
(g70
g51
NtRp977
(dp978
g54
(dp979
g81
g82
ssg63
g969
sg56
(lp980
S':'
asbag49
(g70
g51
NtRp981
(dp982
g54
(dp983
sg63
g969
sg56
(lp984
g49
(g50
g51
NtRp985
(dp986
g54
(dp987
g62
I3
ssg63
g981
sg56
(lp988
S''
asbasbasbag49
(g65
g51
NtRp989
(dp990
g54
(dp991
sg63
g945
sg56
(lp992
g49
(g70
g51
NtRp993
(dp994
g54
(dp995
g74
g75
ssg63
g989
sg56
(lp996
g328
asbag49
(g70
g51
NtRp997
(dp998
g54
(dp999
g81
g82
ssg63
g989
sg56
(lp1000
S':'
asbag49
(g70
g51
NtRp1001
(dp1002
g54
(dp1003
sg63
g989
sg56
(lp1004
g49
(g50
g51
NtRp1005
(dp1006
g54
(dp1007
g62
I3
ssg63
g1001
sg56
(lp1008
S''
asbasbasbag49
(g65
g51
NtRp1009
(dp1010
g54
(dp1011
sg63
g945
sg56
(lp1012
g49
(g70
g51
NtRp1013
(dp1014
g54
(dp1015
g74
g75
ssg63
g1009
sg56
(lp1016
g349
asbag49
(g70
g51
NtRp1017
(dp1018
g54
(dp1019
g81
g82
ssg63
g1009
sg56
(lp1020
S':'
asbag49
(g70
g51
NtRp1021
(dp1022
g54
(dp1023
sg63
g1009
sg56
(lp1024
g49
(g50
g51
NtRp1025
(dp1026
g54
(dp1027
g62
I3
ssg63
g1021
sg56
(lp1028
S''
asbasbasbag49
(g65
g51
NtRp1029
(dp1030
g54
(dp1031
sg63
g945
sg56
(lp1032
g49
(g70
g51
NtRp1033
(dp1034
g54
(dp1035
g74
g75
ssg63
g1029
sg56
(lp1036
g370
asbag49
(g70
g51
NtRp1037
(dp1038
g54
(dp1039
g81
g82
ssg63
g1029
sg56
(lp1040
S':'
asbag49
(g70
g51
NtRp1041
(dp1042
g54
(dp1043
sg63
g1029
sg56
(lp1044
g49
(g50
g51
NtRp1045
(dp1046
g54
(dp1047
g62
I3
ssg63
g1041
sg56
(lp1048
S''
asbasbasbag49
(g65
g51
NtRp1049
(dp1050
g54
(dp1051
sg63
g945
sg56
(lp1052
g49
(g70
g51
NtRp1053
(dp1054
g54
(dp1055
g74
g75
ssg63
g1049
sg56
(lp1056
g391
asbag49
(g70
g51
NtRp1057
(dp1058
g54
(dp1059
g81
g82
ssg63
g1049
sg56
(lp1060
S':'
asbag49
(g70
g51
NtRp1061
(dp1062
g54
(dp1063
sg63
g1049
sg56
(lp1064
g49
(g50
g51
NtRp1065
(dp1066
g54
(dp1067
g62
I3
ssg63
g1061
sg56
(lp1068
S''
asbasbasbag49
(g65
g51
NtRp1069
(dp1070
g54
(dp1071
sg63
g945
sg56
(lp1072
g49
(g70
g51
NtRp1073
(dp1074
g54
(dp1075
g74
g75
ssg63
g1069
sg56
(lp1076
g412
asbag49
(g70
g51
NtRp1077
(dp1078
g54
(dp1079
g81
g82
ssg63
g1069
sg56
(lp1080
S':'
asbag49
(g70
g51
NtRp1081
(dp1082
g54
(dp1083
sg63
g1069
sg56
(lp1084
g49
(g50
g51
NtRp1085
(dp1086
g54
(dp1087
g62
I3
ssg63
g1081
sg56
(lp1088
S''
asbasbasbasbasbasbasbasbasbasbasbag49
(g65
g51
NtRp1089
(dp1090
g54
(dp1091
sg63
g59
sg56
(lp1092
g49
(g70
g51
NtRp1093
(dp1094
g54
(dp1095
g74
g75
ssg63
g1089
sg56
(lp1096
S'env'
p1097
asbag49
(g70
g51
NtRp1098
(dp1099
g54
(dp1100
g81
g82
ssg63
g1089
sg56
(lp1101
S':'
asbag49
(g70
g51
NtRp1102
(dp1103
g54
(dp1104
sg63
g1089
sg56
(lp1105
g49
(g50
g51
NtRp1106
(dp1107
g54
(dp1108
g62
I5
ssg63
g1102
sg56
(lp1109
g49
(g58
g51
NtRp1110
(dp1111
g54
(dp1112
g62
I4
ssg63
Nsg56
(lp1113
g49
(g65
g51
NtRp1114
(dp1115
g54
(dp1116
sg63
g1110
sg56
(lp1117
g49
(g70
g51
NtRp1118
(dp1119
g54
(dp1120
g74
g75
ssg63
g1114
sg56
(lp1121
S'app_folders'
p1122
asbag49
(g70
g51
NtRp1123
(dp1124
g54
(dp1125
g81
g82
ssg63
g1114
sg56
(lp1126
S':'
asbag49
(g70
g51
NtRp1127
(dp1128
g54
(dp1129
sg63
g1114
sg56
(lp1130
g49
(g50
g51
NtRp1131
(dp1132
g54
(dp1133
g62
I4
ssg63
g1127
sg56
(lp1134
S"set(['/Applications/web2py.app/Contents/Resources/applications/Project/', '/Applications/web2py.app/Contents/Resources/applications/hw2/', '/Applications/web2py.app/Contents/Resources/applications/admin/', '/Applications/web2py.app/Contents/Resources/applications/welcome/', '/Applications/web2py.app/Contents/Resources/applications/183_Project/'])"
p1135
asbasbasbag49
(g65
g51
NtRp1136
(dp1137
g54
(dp1138
sg63
g1110
sg56
(lp1139
g49
(g70
g51
NtRp1140
(dp1141
g54
(dp1142
g74
g75
ssg63
g1136
sg56
(lp1143
S'applications_parent'
p1144
asbag49
(g70
g51
NtRp1145
(dp1146
g54
(dp1147
g81
g82
ssg63
g1136
sg56
(lp1148
S':'
asbag49
(g70
g51
NtRp1149
(dp1150
g54
(dp1151
sg63
g1136
sg56
(lp1152
g49
(g50
g51
NtRp1153
(dp1154
g54
(dp1155
g62
I4
ssg63
g1149
sg56
(lp1156
S'/Applications/web2py.app/Contents/Resources'
p1157
asbasbasbag49
(g65
g51
NtRp1158
(dp1159
g54
(dp1160
sg63
g1110
sg56
(lp1161
g49
(g70
g51
NtRp1162
(dp1163
g54
(dp1164
g74
g75
ssg63
g1158
sg56
(lp1165
S'cmd_args'
p1166
asbag49
(g70
g51
NtRp1167
(dp1168
g54
(dp1169
g81
g82
ssg63
g1158
sg56
(lp1170
S':'
asbag49
(g70
g51
NtRp1171
(dp1172
g54
(dp1173
sg63
g1158
sg56
(lp1174
g49
(g50
g51
NtRp1175
(dp1176
g54
(dp1177
g62
I4
ssg63
g1171
sg56
(lp1178
g49
(g58
g51
NtRp1179
(dp1180
g54
(dp1181
g62
I3
ssg63
Nsg56
(lp1182
sbasbasbasbag49
(g65
g51
NtRp1183
(dp1184
g54
(dp1185
sg63
g1110
sg56
(lp1186
g49
(g70
g51
NtRp1187
(dp1188
g54
(dp1189
g74
g75
ssg63
g1183
sg56
(lp1190
S'cmd_options'
p1191
asbag49
(g70
g51
NtRp1192
(dp1193
g54
(dp1194
g81
g82
ssg63
g1183
sg56
(lp1195
S':'
asbag49
(g70
g51
NtRp1196
(dp1197
g54
(dp1198
sg63
g1183
sg56
(lp1199
g49
(g50
g51
NtRp1200
(dp1201
g54
(dp1202
g62
I4
ssg63
g1196
sg56
(lp1203
S"<Values at 0x57f1918: {'verbose': False, 'ip': '127.0.0.1', 'with_scheduler': False, 'ips': ['10.0.0.2'], 'shutdown_timeout': 5, 'taskbar': False, 'port': 8000, 'maxthreads': None, 'softcron': False, 'server_name': 'Lukes-MacBook-Pro.local', 'bpython': False, 'nogui': False, 'nocron': False, 'extcron': False, 'run_system_tests': False, 'test': None, 'folder': '/Applications/web2py.app/Contents/Resources', 'config': '', 'import_models': False, 'winservice': '', 'shell': None, 'run': '', 'log_filename': 'httpserver.log', 'debuglevel': 30, 'args': [''], 'socket_timeout': 5, 'ssl_ca_certificate': None, 'scheduler': None, 'profiler_filename': None, 'ssl_private_key': '', 'scheduler_groups': None, 'password': '<ask>', 'request_queue_size': 5, 'ssl_certificate': '', 'cronjob': False, 'numthreads': None, 'quiet': False, 'interfaces': None, 'minthreads': None, 'timeout': 10, 'plain': False, 'nobanner': False, 'pid_filename': 'httpserver.pid'}>"
p1204
asbasbasbag49
(g65
g51
NtRp1205
(dp1206
g54
(dp1207
sg63
g1110
sg56
(lp1208
g49
(g70
g51
NtRp1209
(dp1210
g54
(dp1211
g74
g75
ssg63
g1205
sg56
(lp1212
S'db_sessions'
p1213
asbag49
(g70
g51
NtRp1214
(dp1215
g54
(dp1216
g81
g82
ssg63
g1205
sg56
(lp1217
S':'
asbag49
(g70
g51
NtRp1218
(dp1219
g54
(dp1220
sg63
g1205
sg56
(lp1221
g49
(g50
g51
NtRp1222
(dp1223
g54
(dp1224
g62
I4
ssg63
g1218
sg56
(lp1225
S'set([])'
p1226
asbasbasbag49
(g65
g51
NtRp1227
(dp1228
g54
(dp1229
sg63
g1110
sg56
(lp1230
g49
(g70
g51
NtRp1231
(dp1232
g54
(dp1233
g74
g75
ssg63
g1227
sg56
(lp1234
S'debugging'
p1235
asbag49
(g70
g51
NtRp1236
(dp1237
g54
(dp1238
g81
g82
ssg63
g1227
sg56
(lp1239
S':'
asbag49
(g70
g51
NtRp1240
(dp1241
g54
(dp1242
sg63
g1227
sg56
(lp1243
g49
(g50
g51
NtRp1244
(dp1245
g54
(dp1246
g62
I4
ssg63
g1240
sg56
(lp1247
g92
asbasbasbag49
(g65
g51
NtRp1248
(dp1249
g54
(dp1250
sg63
g1110
sg56
(lp1251
g49
(g70
g51
NtRp1252
(dp1253
g54
(dp1254
g74
g75
ssg63
g1248
sg56
(lp1255
S'gluon_parent'
p1256
asbag49
(g70
g51
NtRp1257
(dp1258
g54
(dp1259
g81
g82
ssg63
g1248
sg56
(lp1260
S':'
asbag49
(g70
g51
NtRp1261
(dp1262
g54
(dp1263
sg63
g1248
sg56
(lp1264
g49
(g50
g51
NtRp1265
(dp1266
g54
(dp1267
g62
I4
ssg63
g1261
sg56
(lp1268
S'/Applications/web2py.app/Contents/Resources'
p1269
asbasbasbag49
(g65
g51
NtRp1270
(dp1271
g54
(dp1272
sg63
g1110
sg56
(lp1273
g49
(g70
g51
NtRp1274
(dp1275
g54
(dp1276
g74
g75
ssg63
g1270
sg56
(lp1277
S'http_accept'
p1278
asbag49
(g70
g51
NtRp1279
(dp1280
g54
(dp1281
g81
g82
ssg63
g1270
sg56
(lp1282
S':'
asbag49
(g70
g51
NtRp1283
(dp1284
g54
(dp1285
sg63
g1270
sg56
(lp1286
g49
(g50
g51
NtRp1287
(dp1288
g54
(dp1289
g62
I4
ssg63
g1283
sg56
(lp1290
S'text/html,application/xhtml+xml,application/xml;q=0.9,*/*;q=0.8'
p1291
asbasbasbag49
(g65
g51
NtRp1292
(dp1293
g54
(dp1294
sg63
g1110
sg56
(lp1295
g49
(g70
g51
NtRp1296
(dp1297
g54
(dp1298
g74
g75
ssg63
g1292
sg56
(lp1299
S'http_accept_charset'
p1300
asbag49
(g70
g51
NtRp1301
(dp1302
g54
(dp1303
g81
g82
ssg63
g1292
sg56
(lp1304
S':'
asbag49
(g70
g51
NtRp1305
(dp1306
g54
(dp1307
sg63
g1292
sg56
(lp1308
g49
(g50
g51
NtRp1309
(dp1310
g54
(dp1311
g62
I4
ssg63
g1305
sg56
(lp1312
S'ISO-8859-1,utf-8;q=0.7,*;q=0.3'
p1313
asbasbasbag49
(g65
g51
NtRp1314
(dp1315
g54
(dp1316
sg63
g1110
sg56
(lp1317
g49
(g70
g51
NtRp1318
(dp1319
g54
(dp1320
g74
g75
ssg63
g1314
sg56
(lp1321
S'http_accept_encoding'
p1322
asbag49
(g70
g51
NtRp1323
(dp1324
g54
(dp1325
g81
g82
ssg63
g1314
sg56
(lp1326
S':'
asbag49
(g70
g51
NtRp1327
(dp1328
g54
(dp1329
sg63
g1314
sg56
(lp1330
g49
(g50
g51
NtRp1331
(dp1332
g54
(dp1333
g62
I4
ssg63
g1327
sg56
(lp1334
S'gzip,deflate,sdch'
p1335
asbasbasbag49
(g65
g51
NtRp1336
(dp1337
g54
(dp1338
sg63
g1110
sg56
(lp1339
g49
(g70
g51
NtRp1340
(dp1341
g54
(dp1342
g74
g75
ssg63
g1336
sg56
(lp1343
S'http_accept_language'
p1344
asbag49
(g70
g51
NtRp1345
(dp1346
g54
(dp1347
g81
g82
ssg63
g1336
sg56
(lp1348
S':'
asbag49
(g70
g51
NtRp1349
(dp1350
g54
(dp1351
sg63
g1336
sg56
(lp1352
g49
(g50
g51
NtRp1353
(dp1354
g54
(dp1355
g62
I4
ssg63
g1349
sg56
(lp1356
S'en-US,en;q=0.8'
p1357
asbasbasbag49
(g65
g51
NtRp1358
(dp1359
g54
(dp1360
sg63
g1110
sg56
(lp1361
g49
(g70
g51
NtRp1362
(dp1363
g54
(dp1364
g74
g75
ssg63
g1358
sg56
(lp1365
S'http_connection'
p1366
asbag49
(g70
g51
NtRp1367
(dp1368
g54
(dp1369
g81
g82
ssg63
g1358
sg56
(lp1370
S':'
asbag49
(g70
g51
NtRp1371
(dp1372
g54
(dp1373
sg63
g1358
sg56
(lp1374
g49
(g50
g51
NtRp1375
(dp1376
g54
(dp1377
g62
I4
ssg63
g1371
sg56
(lp1378
S'keep-alive'
p1379
asbasbasbag49
(g65
g51
NtRp1380
(dp1381
g54
(dp1382
sg63
g1110
sg56
(lp1383
g49
(g70
g51
NtRp1384
(dp1385
g54
(dp1386
g74
g75
ssg63
g1380
sg56
(lp1387
S'http_cookie'
p1388
asbag49
(g70
g51
NtRp1389
(dp1390
g54
(dp1391
g81
g82
ssg63
g1380
sg56
(lp1392
S':'
asbag49
(g70
g51
NtRp1393
(dp1394
g54
(dp1395
sg63
g1380
sg56
(lp1396
g49
(g50
g51
NtRp1397
(dp1398
g54
(dp1399
g62
I4
ssg63
g1393
sg56
(lp1400
S'session_id_hw1=127.0.0.1-c1ab893d-5a98-4c2d-b248-26b8a25ad648; session_id_project=127.0.0.1-5e79944d-406f-43cf-b132-a365dfc2f67c; session_id_welcome=127.0.0.1-7974756f-c4aa-4df6-9174-0fcad796dda3; session_id_admin=127.0.0.1-50f7bc6a-5dd0-46a8-ad8a-54e99554f427; session_id_183_project=127.0.0.1-c8abb2ee-6092-4cbf-9634-5374f4190b06'
p1401
asbasbasbag49
(g65
g51
NtRp1402
(dp1403
g54
(dp1404
sg63
g1110
sg56
(lp1405
g49
(g70
g51
NtRp1406
(dp1407
g54
(dp1408
g74
g75
ssg63
g1402
sg56
(lp1409
S'http_host'
p1410
asbag49
(g70
g51
NtRp1411
(dp1412
g54
(dp1413
g81
g82
ssg63
g1402
sg56
(lp1414
S':'
asbag49
(g70
g51
NtRp1415
(dp1416
g54
(dp1417
sg63
g1402
sg56
(lp1418
g49
(g50
g51
NtRp1419
(dp1420
g54
(dp1421
g62
I4
ssg63
g1415
sg56
(lp1422
S'127.0.0.1:8000'
p1423
asbasbasbag49
(g65
g51
NtRp1424
(dp1425
g54
(dp1426
sg63
g1110
sg56
(lp1427
g49
(g70
g51
NtRp1428
(dp1429
g54
(dp1430
g74
g75
ssg63
g1424
sg56
(lp1431
S'http_referer'
p1432
asbag49
(g70
g51
NtRp1433
(dp1434
g54
(dp1435
g81
g82
ssg63
g1424
sg56
(lp1436
S':'
asbag49
(g70
g51
NtRp1437
(dp1438
g54
(dp1439
sg63
g1424
sg56
(lp1440
g49
(g50
g51
NtRp1441
(dp1442
g54
(dp1443
g62
I4
ssg63
g1437
sg56
(lp1444
S'http://127.0.0.1:8000/183_Project/default/index'
p1445
asbasbasbag49
(g65
g51
NtRp1446
(dp1447
g54
(dp1448
sg63
g1110
sg56
(lp1449
g49
(g70
g51
NtRp1450
(dp1451
g54
(dp1452
g74
g75
ssg63
g1446
sg56
(lp1453
S'http_user_agent'
p1454
asbag49
(g70
g51
NtRp1455
(dp1456
g54
(dp1457
g81
g82
ssg63
g1446
sg56
(lp1458
S':'
asbag49
(g70
g51
NtRp1459
(dp1460
g54
(dp1461
sg63
g1446
sg56
(lp1462
g49
(g50
g51
NtRp1463
(dp1464
g54
(dp1465
g62
I4
ssg63
g1459
sg56
(lp1466
S'Mozilla/5.0 (Macintosh; Intel Mac OS X 10_7_3) AppleWebKit/537.4 (KHTML, like Gecko) Chrome/22.0.1229.94 Safari/537.4'
p1467
asbasbasbag49
(g65
g51
NtRp1468
(dp1469
g54
(dp1470
sg63
g1110
sg56
(lp1471
g49
(g70
g51
NtRp1472
(dp1473
g54
(dp1474
g74
g75
ssg63
g1468
sg56
(lp1475
S'is_jython'
p1476
asbag49
(g70
g51
NtRp1477
(dp1478
g54
(dp1479
g81
g82
ssg63
g1468
sg56
(lp1480
S':'
asbag49
(g70
g51
NtRp1481
(dp1482
g54
(dp1483
sg63
g1468
sg56
(lp1484
g49
(g50
g51
NtRp1485
(dp1486
g54
(dp1487
g62
I4
ssg63
g1481
sg56
(lp1488
g92
asbasbasbag49
(g65
g51
NtRp1489
(dp1490
g54
(dp1491
sg63
g1110
sg56
(lp1492
g49
(g70
g51
NtRp1493
(dp1494
g54
(dp1495
g74
g75
ssg63
g1489
sg56
(lp1496
S'is_pypy'
p1497
asbag49
(g70
g51
NtRp1498
(dp1499
g54
(dp1500
g81
g82
ssg63
g1489
sg56
(lp1501
S':'
asbag49
(g70
g51
NtRp1502
(dp1503
g54
(dp1504
sg63
g1489
sg56
(lp1505
g49
(g50
g51
NtRp1506
(dp1507
g54
(dp1508
g62
I4
ssg63
g1502
sg56
(lp1509
g92
asbasbasbag49
(g65
g51
NtRp1510
(dp1511
g54
(dp1512
sg63
g1110
sg56
(lp1513
g49
(g70
g51
NtRp1514
(dp1515
g54
(dp1516
g74
g75
ssg63
g1510
sg56
(lp1517
S'path_info'
p1518
asbag49
(g70
g51
NtRp1519
(dp1520
g54
(dp1521
g81
g82
ssg63
g1510
sg56
(lp1522
S':'
asbag49
(g70
g51
NtRp1523
(dp1524
g54
(dp1525
sg63
g1510
sg56
(lp1526
g49
(g50
g51
NtRp1527
(dp1528
g54
(dp1529
g62
I4
ssg63
g1523
sg56
(lp1530
S'/183_Project/default/edit'
p1531
asbasbasbag49
(g65
g51
NtRp1532
(dp1533
g54
(dp1534
sg63
g1110
sg56
(lp1535
g49
(g70
g51
NtRp1536
(dp1537
g54
(dp1538
g74
g75
ssg63
g1532
sg56
(lp1539
S'query_string'
p1540
asbag49
(g70
g51
NtRp1541
(dp1542
g54
(dp1543
g81
g82
ssg63
g1532
sg56
(lp1544
S':'
asbag49
(g70
g51
NtRp1545
(dp1546
g54
(dp1547
sg63
g1532
sg56
(lp1548
g49
(g50
g51
NtRp1549
(dp1550
g54
(dp1551
g62
I4
ssg63
g1545
sg56
(lp1552
S''
asbasbasbag49
(g65
g51
NtRp1553
(dp1554
g54
(dp1555
sg63
g1110
sg56
(lp1556
g49
(g70
g51
NtRp1557
(dp1558
g54
(dp1559
g74
g75
ssg63
g1553
sg56
(lp1560
S'remote_addr'
p1561
asbag49
(g70
g51
NtRp1562
(dp1563
g54
(dp1564
g81
g82
ssg63
g1553
sg56
(lp1565
S':'
asbag49
(g70
g51
NtRp1566
(dp1567
g54
(dp1568
sg63
g1553
sg56
(lp1569
g49
(g50
g51
NtRp1570
(dp1571
g54
(dp1572
g62
I4
ssg63
g1566
sg56
(lp1573
g204
asbasbasbag49
(g65
g51
NtRp1574
(dp1575
g54
(dp1576
sg63
g1110
sg56
(lp1577
g49
(g70
g51
NtRp1578
(dp1579
g54
(dp1580
g74
g75
ssg63
g1574
sg56
(lp1581
S'remote_port'
p1582
asbag49
(g70
g51
NtRp1583
(dp1584
g54
(dp1585
g81
g82
ssg63
g1574
sg56
(lp1586
S':'
asbag49
(g70
g51
NtRp1587
(dp1588
g54
(dp1589
sg63
g1574
sg56
(lp1590
g49
(g50
g51
NtRp1591
(dp1592
g54
(dp1593
g62
I4
ssg63
g1587
sg56
(lp1594
S'58034'
p1595
asbasbasbag49
(g65
g51
NtRp1596
(dp1597
g54
(dp1598
sg63
g1110
sg56
(lp1599
g49
(g70
g51
NtRp1600
(dp1601
g54
(dp1602
g74
g75
ssg63
g1596
sg56
(lp1603
S'request_method'
p1604
asbag49
(g70
g51
NtRp1605
(dp1606
g54
(dp1607
g81
g82
ssg63
g1596
sg56
(lp1608
S':'
asbag49
(g70
g51
NtRp1609
(dp1610
g54
(dp1611
sg63
g1596
sg56
(lp1612
g49
(g50
g51
NtRp1613
(dp1614
g54
(dp1615
g62
I4
ssg63
g1609
sg56
(lp1616
S'GET'
p1617
asbasbasbag49
(g65
g51
NtRp1618
(dp1619
g54
(dp1620
sg63
g1110
sg56
(lp1621
g49
(g70
g51
NtRp1622
(dp1623
g54
(dp1624
g74
g75
ssg63
g1618
sg56
(lp1625
S'request_uri'
p1626
asbag49
(g70
g51
NtRp1627
(dp1628
g54
(dp1629
g81
g82
ssg63
g1618
sg56
(lp1630
S':'
asbag49
(g70
g51
NtRp1631
(dp1632
g54
(dp1633
sg63
g1618
sg56
(lp1634
g49
(g50
g51
NtRp1635
(dp1636
g54
(dp1637
g62
I4
ssg63
g1631
sg56
(lp1638
g1531
asbasbasbag49
(g65
g51
NtRp1639
(dp1640
g54
(dp1641
sg63
g1110
sg56
(lp1642
g49
(g70
g51
NtRp1643
(dp1644
g54
(dp1645
g74
g75
ssg63
g1639
sg56
(lp1646
S'script_name'
p1647
asbag49
(g70
g51
NtRp1648
(dp1649
g54
(dp1650
g81
g82
ssg63
g1639
sg56
(lp1651
S':'
asbag49
(g70
g51
NtRp1652
(dp1653
g54
(dp1654
sg63
g1639
sg56
(lp1655
g49
(g50
g51
NtRp1656
(dp1657
g54
(dp1658
g62
I4
ssg63
g1652
sg56
(lp1659
S''
asbasbasbag49
(g65
g51
NtRp1660
(dp1661
g54
(dp1662
sg63
g1110
sg56
(lp1663
g49
(g70
g51
NtRp1664
(dp1665
g54
(dp1666
g74
g75
ssg63
g1660
sg56
(lp1667
S'server_name'
p1668
asbag49
(g70
g51
NtRp1669
(dp1670
g54
(dp1671
g81
g82
ssg63
g1660
sg56
(lp1672
S':'
asbag49
(g70
g51
NtRp1673
(dp1674
g54
(dp1675
sg63
g1660
sg56
(lp1676
g49
(g50
g51
NtRp1677
(dp1678
g54
(dp1679
g62
I4
ssg63
g1673
sg56
(lp1680
S'Lukes-MacBook-Pro.local'
p1681
asbasbasbag49
(g65
g51
NtRp1682
(dp1683
g54
(dp1684
sg63
g1110
sg56
(lp1685
g49
(g70
g51
NtRp1686
(dp1687
g54
(dp1688
g74
g75
ssg63
g1682
sg56
(lp1689
S'server_port'
p1690
asbag49
(g70
g51
NtRp1691
(dp1692
g54
(dp1693
g81
g82
ssg63
g1682
sg56
(lp1694
S':'
asbag49
(g70
g51
NtRp1695
(dp1696
g54
(dp1697
sg63
g1682
sg56
(lp1698
g49
(g50
g51
NtRp1699
(dp1700
g54
(dp1701
g62
I4
ssg63
g1695
sg56
(lp1702
S'8000'
p1703
asbasbasbag49
(g65
g51
NtRp1704
(dp1705
g54
(dp1706
sg63
g1110
sg56
(lp1707
g49
(g70
g51
NtRp1708
(dp1709
g54
(dp1710
g74
g75
ssg63
g1704
sg56
(lp1711
S'server_protocol'
p1712
asbag49
(g70
g51
NtRp1713
(dp1714
g54
(dp1715
g81
g82
ssg63
g1704
sg56
(lp1716
S':'
asbag49
(g70
g51
NtRp1717
(dp1718
g54
(dp1719
sg63
g1704
sg56
(lp1720
g49
(g50
g51
NtRp1721
(dp1722
g54
(dp1723
g62
I4
ssg63
g1717
sg56
(lp1724
S'HTTP/1.1'
p1725
asbasbasbag49
(g65
g51
NtRp1726
(dp1727
g54
(dp1728
sg63
g1110
sg56
(lp1729
g49
(g70
g51
NtRp1730
(dp1731
g54
(dp1732
g74
g75
ssg63
g1726
sg56
(lp1733
S'server_software'
p1734
asbag49
(g70
g51
NtRp1735
(dp1736
g54
(dp1737
g81
g82
ssg63
g1726
sg56
(lp1738
S':'
asbag49
(g70
g51
NtRp1739
(dp1740
g54
(dp1741
sg63
g1726
sg56
(lp1742
g49
(g50
g51
NtRp1743
(dp1744
g54
(dp1745
g62
I4
ssg63
g1739
sg56
(lp1746
S'Rocket 1.2.4'
p1747
asbasbasbag49
(g65
g51
NtRp1748
(dp1749
g54
(dp1750
sg63
g1110
sg56
(lp1751
g49
(g70
g51
NtRp1752
(dp1753
g54
(dp1754
g74
g75
ssg63
g1748
sg56
(lp1755
S'web2py_crontype'
p1756
asbag49
(g70
g51
NtRp1757
(dp1758
g54
(dp1759
g81
g82
ssg63
g1748
sg56
(lp1760
S':'
asbag49
(g70
g51
NtRp1761
(dp1762
g54
(dp1763
sg63
g1748
sg56
(lp1764
g49
(g50
g51
NtRp1765
(dp1766
g54
(dp1767
g62
I4
ssg63
g1761
sg56
(lp1768
S'hard'
p1769
asbasbasbag49
(g65
g51
NtRp1770
(dp1771
g54
(dp1772
sg63
g1110
sg56
(lp1773
g49
(g70
g51
NtRp1774
(dp1775
g54
(dp1776
g74
g75
ssg63
g1770
sg56
(lp1777
S'web2py_path'
p1778
asbag49
(g70
g51
NtRp1779
(dp1780
g54
(dp1781
g81
g82
ssg63
g1770
sg56
(lp1782
S':'
asbag49
(g70
g51
NtRp1783
(dp1784
g54
(dp1785
sg63
g1770
sg56
(lp1786
g49
(g50
g51
NtRp1787
(dp1788
g54
(dp1789
g62
I4
ssg63
g1783
sg56
(lp1790
g1157
asbasbasbag49
(g65
g51
NtRp1791
(dp1792
g54
(dp1793
sg63
g1110
sg56
(lp1794
g49
(g70
g51
NtRp1795
(dp1796
g54
(dp1797
g74
g75
ssg63
g1791
sg56
(lp1798
S'web2py_version'
p1799
asbag49
(g70
g51
NtRp1800
(dp1801
g54
(dp1802
g81
g82
ssg63
g1791
sg56
(lp1803
S':'
asbag49
(g70
g51
NtRp1804
(dp1805
g54
(dp1806
sg63
g1791
sg56
(lp1807
g49
(g50
g51
NtRp1808
(dp1809
g54
(dp1810
g62
I4
ssg63
g1804
sg56
(lp1811
g49
(g58
g51
NtRp1812
(dp1813
g54
(dp1814
g62
I3
ssg63
Nsg56
(lp1815
g49
(g65
g51
NtRp1816
(dp1817
g54
(dp1818
sg63
g1812
sg56
(lp1819
g49
(g70
g51
NtRp1820
(dp1821
g54
(dp1822
sg63
g1816
sg56
(lp1823
g49
(g50
g51
NtRp1824
(dp1825
g54
(dp1826
g62
I3
ssg63
g1820
sg56
(lp1827
S'2'
asbasbasbag49
(g65
g51
NtRp1828
(dp1829
g54
(dp1830
sg63
g1812
sg56
(lp1831
g49
(g70
g51
NtRp1832
(dp1833
g54
(dp1834
sg63
g1828
sg56
(lp1835
g49
(g50
g51
NtRp1836
(dp1837
g54
(dp1838
g62
I3
ssg63
g1832
sg56
(lp1839
S'0'
asbasbasbag49
(g65
g51
NtRp1840
(dp1841
g54
(dp1842
sg63
g1812
sg56
(lp1843
g49
(g70
g51
NtRp1844
(dp1845
g54
(dp1846
sg63
g1840
sg56
(lp1847
g49
(g50
g51
NtRp1848
(dp1849
g54
(dp1850
g62
I3
ssg63
g1844
sg56
(lp1851
S'9'
asbasbasbag49
(g65
g51
NtRp1852
(dp1853
g54
(dp1854
sg63
g1812
sg56
(lp1855
g49
(g70
g51
NtRp1856
(dp1857
g54
(dp1858
sg63
g1852
sg56
(lp1859
g49
(g50
g51
NtRp1860
(dp1861
g54
(dp1862
g62
I3
ssg63
g1856
sg56
(lp1863
S'datetime.datetime(2012, 9, 13, 23, 51, 30)'
p1864
asbasbasbag49
(g65
g51
NtRp1865
(dp1866
g54
(dp1867
sg63
g1812
sg56
(lp1868
g49
(g70
g51
NtRp1869
(dp1870
g54
(dp1871
sg63
g1865
sg56
(lp1872
g49
(g50
g51
NtRp1873
(dp1874
g54
(dp1875
g62
I3
ssg63
g1869
sg56
(lp1876
S'stable'
p1877
asbasbasbasbasbasbasbag49
(g65
g51
NtRp1878
(dp1879
g54
(dp1880
sg63
g1110
sg56
(lp1881
g49
(g70
g51
NtRp1882
(dp1883
g54
(dp1884
g74
g75
ssg63
g1878
sg56
(lp1885
S'wsgi_errors'
p1886
asbag49
(g70
g51
NtRp1887
(dp1888
g54
(dp1889
g81
g82
ssg63
g1878
sg56
(lp1890
S':'
asbag49
(g70
g51
NtRp1891
(dp1892
g54
(dp1893
sg63
g1878
sg56
(lp1894
g49
(g50
g51
NtRp1895
(dp1896
g54
(dp1897
g62
I4
ssg63
g1891
sg56
(lp1898
S"<open file '<stderr>', mode 'w' at 0x750b0>"
p1899
asbasbasbag49
(g65
g51
NtRp1900
(dp1901
g54
(dp1902
sg63
g1110
sg56
(lp1903
g49
(g70
g51
NtRp1904
(dp1905
g54
(dp1906
g74
g75
ssg63
g1900
sg56
(lp1907
S'wsgi_file_wrapper'
p1908
asbag49
(g70
g51
NtRp1909
(dp1910
g54
(dp1911
g81
g82
ssg63
g1900
sg56
(lp1912
S':'
asbag49
(g70
g51
NtRp1913
(dp1914
g54
(dp1915
sg63
g1900
sg56
(lp1916
g49
(g50
g51
NtRp1917
(dp1918
g54
(dp1919
g62
I4
ssg63
g1913
sg56
(lp1920
S'<class wsgiref.util.FileWrapper at 0x57d00c0>'
p1921
asbasbasbag49
(g65
g51
NtRp1922
(dp1923
g54
(dp1924
sg63
g1110
sg56
(lp1925
g49
(g70
g51
NtRp1926
(dp1927
g54
(dp1928
g74
g75
ssg63
g1922
sg56
(lp1929
S'wsgi_input'
p1930
asbag49
(g70
g51
NtRp1931
(dp1932
g54
(dp1933
g81
g82
ssg63
g1922
sg56
(lp1934
S':'
asbag49
(g70
g51
NtRp1935
(dp1936
g54
(dp1937
sg63
g1922
sg56
(lp1938
g49
(g50
g51
NtRp1939
(dp1940
g54
(dp1941
g62
I4
ssg63
g1935
sg56
(lp1942
S'<socket._fileobject object at 0x89d9470>'
p1943
asbasbasbag49
(g65
g51
NtRp1944
(dp1945
g54
(dp1946
sg63
g1110
sg56
(lp1947
g49
(g70
g51
NtRp1948
(dp1949
g54
(dp1950
g74
g75
ssg63
g1944
sg56
(lp1951
S'wsgi_multiprocess'
p1952
asbag49
(g70
g51
NtRp1953
(dp1954
g54
(dp1955
g81
g82
ssg63
g1944
sg56
(lp1956
S':'
asbag49
(g70
g51
NtRp1957
(dp1958
g54
(dp1959
sg63
g1944
sg56
(lp1960
g49
(g50
g51
NtRp1961
(dp1962
g54
(dp1963
g62
I4
ssg63
g1957
sg56
(lp1964
g92
asbasbasbag49
(g65
g51
NtRp1965
(dp1966
g54
(dp1967
sg63
g1110
sg56
(lp1968
g49
(g70
g51
NtRp1969
(dp1970
g54
(dp1971
g74
g75
ssg63
g1965
sg56
(lp1972
S'wsgi_multithread'
p1973
asbag49
(g70
g51
NtRp1974
(dp1975
g54
(dp1976
g81
g82
ssg63
g1965
sg56
(lp1977
S':'
asbag49
(g70
g51
NtRp1978
(dp1979
g54
(dp1980
sg63
g1965
sg56
(lp1981
g49
(g50
g51
NtRp1982
(dp1983
g54
(dp1984
g62
I4
ssg63
g1978
sg56
(lp1985
S'True'
p1986
asbasbasbag49
(g65
g51
NtRp1987
(dp1988
g54
(dp1989
sg63
g1110
sg56
(lp1990
g49
(g70
g51
NtRp1991
(dp1992
g54
(dp1993
g74
g75
ssg63
g1987
sg56
(lp1994
S'wsgi_run_once'
p1995
asbag49
(g70
g51
NtRp1996
(dp1997
g54
(dp1998
g81
g82
ssg63
g1987
sg56
(lp1999
S':'
asbag49
(g70
g51
NtRp2000
(dp2001
g54
(dp2002
sg63
g1987
sg56
(lp2003
g49
(g50
g51
NtRp2004
(dp2005
g54
(dp2006
g62
I4
ssg63
g2000
sg56
(lp2007
g92
asbasbasbag49
(g65
g51
NtRp2008
(dp2009
g54
(dp2010
sg63
g1110
sg56
(lp2011
g49
(g70
g51
NtRp2012
(dp2013
g54
(dp2014
g74
g75
ssg63
g2008
sg56
(lp2015
S'wsgi_url_scheme'
p2016
asbag49
(g70
g51
NtRp2017
(dp2018
g54
(dp2019
g81
g82
ssg63
g2008
sg56
(lp2020
S':'
asbag49
(g70
g51
NtRp2021
(dp2022
g54
(dp2023
sg63
g2008
sg56
(lp2024
g49
(g50
g51
NtRp2025
(dp2026
g54
(dp2027
g62
I4
ssg63
g2021
sg56
(lp2028
S'http'
p2029
asbasbasbag49
(g65
g51
NtRp2030
(dp2031
g54
(dp2032
sg63
g1110
sg56
(lp2033
g49
(g70
g51
NtRp2034
(dp2035
g54
(dp2036
g74
g75
ssg63
g2030
sg56
(lp2037
S'wsgi_version'
p2038
asbag49
(g70
g51
NtRp2039
(dp2040
g54
(dp2041
g81
g82
ssg63
g2030
sg56
(lp2042
S':'
asbag49
(g70
g51
NtRp2043
(dp2044
g54
(dp2045
sg63
g2030
sg56
(lp2046
g49
(g50
g51
NtRp2047
(dp2048
g54
(dp2049
g62
I4
ssg63
g2043
sg56
(lp2050
g49
(g58
g51
NtRp2051
(dp2052
g54
(dp2053
g62
I3
ssg63
Nsg56
(lp2054
g49
(g65
g51
NtRp2055
(dp2056
g54
(dp2057
sg63
g2051
sg56
(lp2058
g49
(g70
g51
NtRp2059
(dp2060
g54
(dp2061
sg63
g2055
sg56
(lp2062
g49
(g50
g51
NtRp2063
(dp2064
g54
(dp2065
g62
I3
ssg63
g2059
sg56
(lp2066
S'1'
asbasbasbag49
(g65
g51
NtRp2067
(dp2068
g54
(dp2069
sg63
g2051
sg56
(lp2070
g49
(g70
g51
NtRp2071
(dp2072
g54
(dp2073
sg63
g2067
sg56
(lp2074
g49
(g50
g51
NtRp2075
(dp2076
g54
(dp2077
g62
I3
ssg63
g2071
sg56
(lp2078
S'0'
asbasbasbasbasbasbasbasbasbasbasbag49
(g65
g51
NtRp2079
(dp2080
g54
(dp2081
sg63
g59
sg56
(lp2082
g49
(g70
g51
NtRp2083
(dp2084
g54
(dp2085
g74
g75
ssg63
g2079
sg56
(lp2086
S'extension'
p2087
asbag49
(g70
g51
NtRp2088
(dp2089
g54
(dp2090
g81
g82
ssg63
g2079
sg56
(lp2091
S':'
asbag49
(g70
g51
NtRp2092
(dp2093
g54
(dp2094
sg63
g2079
sg56
(lp2095
g49
(g50
g51
NtRp2096
(dp2097
g54
(dp2098
g62
I5
ssg63
g2092
sg56
(lp2099
S'html'
p2100
asbasbasbag49
(g65
g51
NtRp2101
(dp2102
g54
(dp2103
sg63
g59
sg56
(lp2104
g49
(g70
g51
NtRp2105
(dp2106
g54
(dp2107
g74
g75
ssg63
g2101
sg56
(lp2108
S'folder'
p2109
asbag49
(g70
g51
NtRp2110
(dp2111
g54
(dp2112
g81
g82
ssg63
g2101
sg56
(lp2113
S':'
asbag49
(g70
g51
NtRp2114
(dp2115
g54
(dp2116
sg63
g2101
sg56
(lp2117
g49
(g50
g51
NtRp2118
(dp2119
g54
(dp2120
g62
I5
ssg63
g2114
sg56
(lp2121
S'/Applications/web2py.app/Contents/Resources/applications/183_Project/'
p2122
asbasbasbag49
(g65
g51
NtRp2123
(dp2124
g54
(dp2125
sg63
g59
sg56
(lp2126
g49
(g70
g51
NtRp2127
(dp2128
g54
(dp2129
g74
g75
ssg63
g2123
sg56
(lp2130
S'function'
p2131
asbag49
(g70
g51
NtRp2132
(dp2133
g54
(dp2134
g81
g82
ssg63
g2123
sg56
(lp2135
S':'
asbag49
(g70
g51
NtRp2136
(dp2137
g54
(dp2138
sg63
g2123
sg56
(lp2139
g49
(g50
g51
NtRp2140
(dp2141
g54
(dp2142
g62
I5
ssg63
g2136
sg56
(lp2143
S'edit'
p2144
asbasbasbag49
(g65
g51
NtRp2145
(dp2146
g54
(dp2147
sg63
g59
sg56
(lp2148
g49
(g70
g51
NtRp2149
(dp2150
g54
(dp2151
g74
g75
ssg63
g2145
sg56
(lp2152
S'get_vars'
p2153
asbag49
(g70
g51
NtRp2154
(dp2155
g54
(dp2156
g81
g82
ssg63
g2145
sg56
(lp2157
S':'
asbag49
(g70
g51
NtRp2158
(dp2159
g54
(dp2160
sg63
g2145
sg56
(lp2161
g49
(g50
g51
NtRp2162
(dp2163
g54
(dp2164
g62
I5
ssg63
g2158
sg56
(lp2165
g49
(g58
g51
NtRp2166
(dp2167
g54
(dp2168
g62
I4
ssg63
Nsg56
(lp2169
sbasbasbasbag49
(g65
g51
NtRp2170
(dp2171
g54
(dp2172
sg63
g59
sg56
(lp2173
g49
(g70
g51
NtRp2174
(dp2175
g54
(dp2176
g74
g75
ssg63
g2170
sg56
(lp2177
S'global_settings'
p2178
asbag49
(g70
g51
NtRp2179
(dp2180
g54
(dp2181
g81
g82
ssg63
g2170
sg56
(lp2182
S':'
asbag49
(g70
g51
NtRp2183
(dp2184
g54
(dp2185
sg63
g2170
sg56
(lp2186
g49
(g50
g51
NtRp2187
(dp2188
g54
(dp2189
g62
I5
ssg63
g2183
sg56
(lp2190
g49
(g58
g51
NtRp2191
(dp2192
g54
(dp2193
g62
I4
ssg63
Nsg56
(lp2194
g49
(g65
g51
NtRp2195
(dp2196
g54
(dp2197
sg63
g2191
sg56
(lp2198
g49
(g70
g51
NtRp2199
(dp2200
g54
(dp2201
g74
g75
ssg63
g2195
sg56
(lp2202
g1122
asbag49
(g70
g51
NtRp2203
(dp2204
g54
(dp2205
g81
g82
ssg63
g2195
sg56
(lp2206
S':'
asbag49
(g70
g51
NtRp2207
(dp2208
g54
(dp2209
sg63
g2195
sg56
(lp2210
g49
(g50
g51
NtRp2211
(dp2212
g54
(dp2213
g62
I4
ssg63
g2207
sg56
(lp2214
S"set(['/Applications/web2py.app/Contents/Resources/applications/Project/', '/Applications/web2py.app/Contents/Resources/applications/hw2/', '/Applications/web2py.app/Contents/Resources/applications/admin/', '/Applications/web2py.app/Contents/Resources/applications/welcome/', '/Applications/web2py.app/Contents/Resources/applications/183_Project/'])"
p2215
asbasbasbag49
(g65
g51
NtRp2216
(dp2217
g54
(dp2218
sg63
g2191
sg56
(lp2219
g49
(g70
g51
NtRp2220
(dp2221
g54
(dp2222
g74
g75
ssg63
g2216
sg56
(lp2223
g1144
asbag49
(g70
g51
NtRp2224
(dp2225
g54
(dp2226
g81
g82
ssg63
g2216
sg56
(lp2227
S':'
asbag49
(g70
g51
NtRp2228
(dp2229
g54
(dp2230
sg63
g2216
sg56
(lp2231
g49
(g50
g51
NtRp2232
(dp2233
g54
(dp2234
g62
I4
ssg63
g2228
sg56
(lp2235
g1157
asbasbasbag49
(g65
g51
NtRp2236
(dp2237
g54
(dp2238
sg63
g2191
sg56
(lp2239
g49
(g70
g51
NtRp2240
(dp2241
g54
(dp2242
g74
g75
ssg63
g2236
sg56
(lp2243
g1166
asbag49
(g70
g51
NtRp2244
(dp2245
g54
(dp2246
g81
g82
ssg63
g2236
sg56
(lp2247
S':'
asbag49
(g70
g51
NtRp2248
(dp2249
g54
(dp2250
sg63
g2236
sg56
(lp2251
g49
(g50
g51
NtRp2252
(dp2253
g54
(dp2254
g62
I4
ssg63
g2248
sg56
(lp2255
g49
(g58
g51
NtRp2256
(dp2257
g54
(dp2258
g62
I3
ssg63
Nsg56
(lp2259
sbasbasbasbag49
(g65
g51
NtRp2260
(dp2261
g54
(dp2262
sg63
g2191
sg56
(lp2263
g49
(g70
g51
NtRp2264
(dp2265
g54
(dp2266
g74
g75
ssg63
g2260
sg56
(lp2267
g1191
asbag49
(g70
g51
NtRp2268
(dp2269
g54
(dp2270
g81
g82
ssg63
g2260
sg56
(lp2271
S':'
asbag49
(g70
g51
NtRp2272
(dp2273
g54
(dp2274
sg63
g2260
sg56
(lp2275
g49
(g50
g51
NtRp2276
(dp2277
g54
(dp2278
g62
I4
ssg63
g2272
sg56
(lp2279
S"<Values at 0x57f1918: {'verbose': False, 'ip': '127.0.0.1', 'with_scheduler': False, 'ips': ['10.0.0.2'], 'shutdown_timeout': 5, 'taskbar': False, 'port': 8000, 'maxthreads': None, 'softcron': False, 'server_name': 'Lukes-MacBook-Pro.local', 'bpython': False, 'nogui': False, 'nocron': False, 'extcron': False, 'run_system_tests': False, 'test': None, 'folder': '/Applications/web2py.app/Contents/Resources', 'config': '', 'import_models': False, 'winservice': '', 'shell': None, 'run': '', 'log_filename': 'httpserver.log', 'debuglevel': 30, 'args': [''], 'socket_timeout': 5, 'ssl_ca_certificate': None, 'scheduler': None, 'profiler_filename': None, 'ssl_private_key': '', 'scheduler_groups': None, 'password': '<ask>', 'request_queue_size': 5, 'ssl_certificate': '', 'cronjob': False, 'numthreads': None, 'quiet': False, 'interfaces': None, 'minthreads': None, 'timeout': 10, 'plain': False, 'nobanner': False, 'pid_filename': 'httpserver.pid'}>"
p2280
asbasbasbag49
(g65
g51
NtRp2281
(dp2282
g54
(dp2283
sg63
g2191
sg56
(lp2284
g49
(g70
g51
NtRp2285
(dp2286
g54
(dp2287
g74
g75
ssg63
g2281
sg56
(lp2288
g1213
asbag49
(g70
g51
NtRp2289
(dp2290
g54
(dp2291
g81
g82
ssg63
g2281
sg56
(lp2292
S':'
asbag49
(g70
g51
NtRp2293
(dp2294
g54
(dp2295
sg63
g2281
sg56
(lp2296
g49
(g50
g51
NtRp2297
(dp2298
g54
(dp2299
g62
I4
ssg63
g2293
sg56
(lp2300
S'set([])'
p2301
asbasbasbag49
(g65
g51
NtRp2302
(dp2303
g54
(dp2304
sg63
g2191
sg56
(lp2305
g49
(g70
g51
NtRp2306
(dp2307
g54
(dp2308
g74
g75
ssg63
g2302
sg56
(lp2309
g1235
asbag49
(g70
g51
NtRp2310
(dp2311
g54
(dp2312
g81
g82
ssg63
g2302
sg56
(lp2313
S':'
asbag49
(g70
g51
NtRp2314
(dp2315
g54
(dp2316
sg63
g2302
sg56
(lp2317
g49
(g50
g51
NtRp2318
(dp2319
g54
(dp2320
g62
I4
ssg63
g2314
sg56
(lp2321
g92
asbasbasbag49
(g65
g51
NtRp2322
(dp2323
g54
(dp2324
sg63
g2191
sg56
(lp2325
g49
(g70
g51
NtRp2326
(dp2327
g54
(dp2328
g74
g75
ssg63
g2322
sg56
(lp2329
g1256
asbag49
(g70
g51
NtRp2330
(dp2331
g54
(dp2332
g81
g82
ssg63
g2322
sg56
(lp2333
S':'
asbag49
(g70
g51
NtRp2334
(dp2335
g54
(dp2336
sg63
g2322
sg56
(lp2337
g49
(g50
g51
NtRp2338
(dp2339
g54
(dp2340
g62
I4
ssg63
g2334
sg56
(lp2341
g1269
asbasbasbag49
(g65
g51
NtRp2342
(dp2343
g54
(dp2344
sg63
g2191
sg56
(lp2345
g49
(g70
g51
NtRp2346
(dp2347
g54
(dp2348
g74
g75
ssg63
g2342
sg56
(lp2349
g1476
asbag49
(g70
g51
NtRp2350
(dp2351
g54
(dp2352
g81
g82
ssg63
g2342
sg56
(lp2353
S':'
asbag49
(g70
g51
NtRp2354
(dp2355
g54
(dp2356
sg63
g2342
sg56
(lp2357
g49
(g50
g51
NtRp2358
(dp2359
g54
(dp2360
g62
I4
ssg63
g2354
sg56
(lp2361
g92
asbasbasbag49
(g65
g51
NtRp2362
(dp2363
g54
(dp2364
sg63
g2191
sg56
(lp2365
g49
(g70
g51
NtRp2366
(dp2367
g54
(dp2368
g74
g75
ssg63
g2362
sg56
(lp2369
g1497
asbag49
(g70
g51
NtRp2370
(dp2371
g54
(dp2372
g81
g82
ssg63
g2362
sg56
(lp2373
S':'
asbag49
(g70
g51
NtRp2374
(dp2375
g54
(dp2376
sg63
g2362
sg56
(lp2377
g49
(g50
g51
NtRp2378
(dp2379
g54
(dp2380
g62
I4
ssg63
g2374
sg56
(lp2381
g92
asbasbasbag49
(g65
g51
NtRp2382
(dp2383
g54
(dp2384
sg63
g2191
sg56
(lp2385
g49
(g70
g51
NtRp2386
(dp2387
g54
(dp2388
g74
g75
ssg63
g2382
sg56
(lp2389
g1756
asbag49
(g70
g51
NtRp2390
(dp2391
g54
(dp2392
g81
g82
ssg63
g2382
sg56
(lp2393
S':'
asbag49
(g70
g51
NtRp2394
(dp2395
g54
(dp2396
sg63
g2382
sg56
(lp2397
g49
(g50
g51
NtRp2398
(dp2399
g54
(dp2400
g62
I4
ssg63
g2394
sg56
(lp2401
g1769
asbasbasbag49
(g65
g51
NtRp2402
(dp2403
g54
(dp2404
sg63
g2191
sg56
(lp2405
g49
(g70
g51
NtRp2406
(dp2407
g54
(dp2408
g74
g75
ssg63
g2402
sg56
(lp2409
g1799
asbag49
(g70
g51
NtRp2410
(dp2411
g54
(dp2412
g81
g82
ssg63
g2402
sg56
(lp2413
S':'
asbag49
(g70
g51
NtRp2414
(dp2415
g54
(dp2416
sg63
g2402
sg56
(lp2417
g49
(g50
g51
NtRp2418
(dp2419
g54
(dp2420
g62
I4
ssg63
g2414
sg56
(lp2421
g49
(g58
g51
NtRp2422
(dp2423
g54
(dp2424
g62
I3
ssg63
Nsg56
(lp2425
g49
(g65
g51
NtRp2426
(dp2427
g54
(dp2428
sg63
g2422
sg56
(lp2429
g49
(g70
g51
NtRp2430
(dp2431
g54
(dp2432
sg63
g2426
sg56
(lp2433
g49
(g50
g51
NtRp2434
(dp2435
g54
(dp2436
g62
I3
ssg63
g2430
sg56
(lp2437
S'2'
asbasbasbag49
(g65
g51
NtRp2438
(dp2439
g54
(dp2440
sg63
g2422
sg56
(lp2441
g49
(g70
g51
NtRp2442
(dp2443
g54
(dp2444
sg63
g2438
sg56
(lp2445
g49
(g50
g51
NtRp2446
(dp2447
g54
(dp2448
g62
I3
ssg63
g2442
sg56
(lp2449
S'0'
asbasbasbag49
(g65
g51
NtRp2450
(dp2451
g54
(dp2452
sg63
g2422
sg56
(lp2453
g49
(g70
g51
NtRp2454
(dp2455
g54
(dp2456
sg63
g2450
sg56
(lp2457
g49
(g50
g51
NtRp2458
(dp2459
g54
(dp2460
g62
I3
ssg63
g2454
sg56
(lp2461
S'9'
asbasbasbag49
(g65
g51
NtRp2462
(dp2463
g54
(dp2464
sg63
g2422
sg56
(lp2465
g49
(g70
g51
NtRp2466
(dp2467
g54
(dp2468
sg63
g2462
sg56
(lp2469
g49
(g50
g51
NtRp2470
(dp2471
g54
(dp2472
g62
I3
ssg63
g2466
sg56
(lp2473
S'datetime.datetime(2012, 9, 13, 23, 51, 30)'
p2474
asbasbasbag49
(g65
g51
NtRp2475
(dp2476
g54
(dp2477
sg63
g2422
sg56
(lp2478
g49
(g70
g51
NtRp2479
(dp2480
g54
(dp2481
sg63
g2475
sg56
(lp2482
g49
(g50
g51
NtRp2483
(dp2484
g54
(dp2485
g62
I3
ssg63
g2479
sg56
(lp2486
g1877
asbasbasbasbasbasbasbasbasbasbasbag49
(g65
g51
NtRp2487
(dp2488
g54
(dp2489
sg63
g59
sg56
(lp2490
g49
(g70
g51
NtRp2491
(dp2492
g54
(dp2493
g74
g75
ssg63
g2487
sg56
(lp2494
S'is_https'
p2495
asbag49
(g70
g51
NtRp2496
(dp2497
g54
(dp2498
g81
g82
ssg63
g2487
sg56
(lp2499
S':'
asbag49
(g70
g51
NtRp2500
(dp2501
g54
(dp2502
sg63
g2487
sg56
(lp2503
g49
(g50
g51
NtRp2504
(dp2505
g54
(dp2506
g62
I5
ssg63
g2500
sg56
(lp2507
g92
asbasbasbag49
(g65
g51
NtRp2508
(dp2509
g54
(dp2510
sg63
g59
sg56
(lp2511
g49
(g70
g51
NtRp2512
(dp2513
g54
(dp2514
g74
g75
ssg63
g2508
sg56
(lp2515
S'is_local'
p2516
asbag49
(g70
g51
NtRp2517
(dp2518
g54
(dp2519
g81
g82
ssg63
g2508
sg56
(lp2520
S':'
asbag49
(g70
g51
NtRp2521
(dp2522
g54
(dp2523
sg63
g2508
sg56
(lp2524
g49
(g50
g51
NtRp2525
(dp2526
g54
(dp2527
g62
I5
ssg63
g2521
sg56
(lp2528
g1986
asbasbasbag49
(g65
g51
NtRp2529
(dp2530
g54
(dp2531
sg63
g59
sg56
(lp2532
g49
(g70
g51
NtRp2533
(dp2534
g54
(dp2535
g74
g75
ssg63
g2529
sg56
(lp2536
S'is_restful'
p2537
asbag49
(g70
g51
NtRp2538
(dp2539
g54
(dp2540
g81
g82
ssg63
g2529
sg56
(lp2541
S':'
asbag49
(g70
g51
NtRp2542
(dp2543
g54
(dp2544
sg63
g2529
sg56
(lp2545
g49
(g50
g51
NtRp2546
(dp2547
g54
(dp2548
g62
I5
ssg63
g2542
sg56
(lp2549
g92
asbasbasbag49
(g65
g51
NtRp2550
(dp2551
g54
(dp2552
sg63
g59
sg56
(lp2553
g49
(g70
g51
NtRp2554
(dp2555
g54
(dp2556
g74
g75
ssg63
g2550
sg56
(lp2557
S'now'
p2558
asbag49
(g70
g51
NtRp2559
(dp2560
g54
(dp2561
g81
g82
ssg63
g2550
sg56
(lp2562
S':'
asbag49
(g70
g51
NtRp2563
(dp2564
g54
(dp2565
sg63
g2550
sg56
(lp2566
g49
(g50
g51
NtRp2567
(dp2568
g54
(dp2569
g62
I5
ssg63
g2563
sg56
(lp2570
S'datetime.datetime(2012, 10, 30, 16, 47, 51, 754688)'
p2571
asbasbasbag49
(g65
g51
NtRp2572
(dp2573
g54
(dp2574
sg63
g59
sg56
(lp2575
g49
(g70
g51
NtRp2576
(dp2577
g54
(dp2578
g74
g75
ssg63
g2572
sg56
(lp2579
S'post_vars'
p2580
asbag49
(g70
g51
NtRp2581
(dp2582
g54
(dp2583
g81
g82
ssg63
g2572
sg56
(lp2584
S':'
asbag49
(g70
g51
NtRp2585
(dp2586
g54
(dp2587
sg63
g2572
sg56
(lp2588
g49
(g50
g51
NtRp2589
(dp2590
g54
(dp2591
g62
I5
ssg63
g2585
sg56
(lp2592
g49
(g58
g51
NtRp2593
(dp2594
g54
(dp2595
g62
I4
ssg63
Nsg56
(lp2596
sbasbasbasbag49
(g65
g51
NtRp2597
(dp2598
g54
(dp2599
sg63
g59
sg56
(lp2600
g49
(g70
g51
NtRp2601
(dp2602
g54
(dp2603
g74
g75
ssg63
g2597
sg56
(lp2604
S'raw_args'
p2605
asbag49
(g70
g51
NtRp2606
(dp2607
g54
(dp2608
g81
g82
ssg63
g2597
sg56
(lp2609
S':'
asbag49
(g70
g51
NtRp2610
(dp2611
g54
(dp2612
sg63
g2597
sg56
(lp2613
g49
(g50
g51
NtRp2614
(dp2615
g54
(dp2616
g62
I5
ssg63
g2610
sg56
(lp2617
S'None'
p2618
asbasbasbag49
(g65
g51
NtRp2619
(dp2620
g54
(dp2621
sg63
g59
sg56
(lp2622
g49
(g70
g51
NtRp2623
(dp2624
g54
(dp2625
g74
g75
ssg63
g2619
sg56
(lp2626
S'raw_extension'
p2627
asbag49
(g70
g51
NtRp2628
(dp2629
g54
(dp2630
g81
g82
ssg63
g2619
sg56
(lp2631
S':'
asbag49
(g70
g51
NtRp2632
(dp2633
g54
(dp2634
sg63
g2619
sg56
(lp2635
g49
(g50
g51
NtRp2636
(dp2637
g54
(dp2638
g62
I5
ssg63
g2632
sg56
(lp2639
S'None'
p2640
asbasbasbag49
(g65
g51
NtRp2641
(dp2642
g54
(dp2643
sg63
g59
sg56
(lp2644
g49
(g70
g51
NtRp2645
(dp2646
g54
(dp2647
g74
g75
ssg63
g2641
sg56
(lp2648
S'url'
p2649
asbag49
(g70
g51
NtRp2650
(dp2651
g54
(dp2652
g81
g82
ssg63
g2641
sg56
(lp2653
S':'
asbag49
(g70
g51
NtRp2654
(dp2655
g54
(dp2656
sg63
g2641
sg56
(lp2657
g49
(g50
g51
NtRp2658
(dp2659
g54
(dp2660
g62
I5
ssg63
g2654
sg56
(lp2661
g1531
asbasbasbag49
(g65
g51
NtRp2662
(dp2663
g54
(dp2664
sg63
g59
sg56
(lp2665
g49
(g70
g51
NtRp2666
(dp2667
g54
(dp2668
g74
g75
ssg63
g2662
sg56
(lp2669
S'utcnow'
p2670
asbag49
(g70
g51
NtRp2671
(dp2672
g54
(dp2673
g81
g82
ssg63
g2662
sg56
(lp2674
S':'
asbag49
(g70
g51
NtRp2675
(dp2676
g54
(dp2677
sg63
g2662
sg56
(lp2678
g49
(g50
g51
NtRp2679
(dp2680
g54
(dp2681
g62
I5
ssg63
g2675
sg56
(lp2682
S'datetime.datetime(2012, 10, 30, 23, 47, 51, 754700)'
p2683
asbasbasbag49
(g65
g51
NtRp2684
(dp2685
g54
(dp2686
sg63
g59
sg56
(lp2687
g49
(g70
g51
NtRp2688
(dp2689
g54
(dp2690
g74
g75
ssg63
g2684
sg56
(lp2691
S'uuid'
p2692
asbag49
(g70
g51
NtRp2693
(dp2694
g54
(dp2695
g81
g82
ssg63
g2684
sg56
(lp2696
S':'
asbag49
(g70
g51
NtRp2697
(dp2698
g54
(dp2699
sg63
g2684
sg56
(lp2700
g49
(g50
g51
NtRp2701
(dp2702
g54
(dp2703
g62
I5
ssg63
g2697
sg56
(lp2704
S'183_Project/127.0.0.1.2012-10-30.16-47-51.3fa295f8-c337-4f81-b621-173b57cc59a6'
p2705
asbasbasbag49
(g65
g51
NtRp2706
(dp2707
g54
(dp2708
sg63
g59
sg56
(lp2709
g49
(g70
g51
NtRp2710
(dp2711
g54
(dp2712
g74
g75
ssg63
g2706
sg56
(lp2713
S'vars'
p2714
asbag49
(g70
g51
NtRp2715
(dp2716
g54
(dp2717
g81
g82
ssg63
g2706
sg56
(lp2718
S':'
asbag49
(g70
g51
NtRp2719
(dp2720
g54
(dp2721
sg63
g2706
sg56
(lp2722
g49
(g50
g51
NtRp2723
(dp2724
g54
(dp2725
g62
I5
ssg63
g2719
sg56
(lp2726
g49
(g58
g51
NtRp2727
(dp2728
g54
(dp2729
g62
I4
ssg63
Nsg56
(lp2730
sbasbasbasbag49
(g65
g51
NtRp2731
(dp2732
g54
(dp2733
sg63
g59
sg56
(lp2734
g49
(g70
g51
NtRp2735
(dp2736
g54
(dp2737
g74
g75
ssg63
g2731
sg56
(lp2738
S'wsgi'
p2739
asbag49
(g70
g51
NtRp2740
(dp2741
g54
(dp2742
g81
g82
ssg63
g2731
sg56
(lp2743
S':'
asbag49
(g70
g51
NtRp2744
(dp2745
g54
(dp2746
sg63
g2731
sg56
(lp2747
g49
(g50
g51
NtRp2748
(dp2749
g54
(dp2750
g62
I5
ssg63
g2744
sg56
(lp2751
g49
(g58
g51
NtRp2752
(dp2753
g54
(dp2754
g62
I4
ssg63
Nsg56
(lp2755
g49
(g65
g51
NtRp2756
(dp2757
g54
(dp2758
sg63
g2752
sg56
(lp2759
g49
(g70
g51
NtRp2760
(dp2761
g54
(dp2762
g74
g75
ssg63
g2756
sg56
(lp2763
S'environ'
p2764
asbag49
(g70
g51
NtRp2765
(dp2766
g54
(dp2767
g81
g82
ssg63
g2756
sg56
(lp2768
S':'
asbag49
(g70
g51
NtRp2769
(dp2770
g54
(dp2771
sg63
g2756
sg56
(lp2772
g49
(g50
g51
NtRp2773
(dp2774
g54
(dp2775
g62
I4
ssg63
g2769
sg56
(lp2776
g49
(g58
g51
NtRp2777
(dp2778
g54
(dp2779
g62
I3
ssg63
Nsg56
(lp2780
g49
(g65
g51
NtRp2781
(dp2782
g54
(dp2783
sg63
g2777
sg56
(lp2784
g49
(g70
g51
NtRp2785
(dp2786
g54
(dp2787
g74
g75
ssg63
g2781
sg56
(lp2788
S'HTTP_ACCEPT'
p2789
asbag49
(g70
g51
NtRp2790
(dp2791
g54
(dp2792
g81
g82
ssg63
g2781
sg56
(lp2793
S':'
asbag49
(g70
g51
NtRp2794
(dp2795
g54
(dp2796
sg63
g2781
sg56
(lp2797
g49
(g50
g51
NtRp2798
(dp2799
g54
(dp2800
g62
I3
ssg63
g2794
sg56
(lp2801
g1291
asbasbasbag49
(g65
g51
NtRp2802
(dp2803
g54
(dp2804
sg63
g2777
sg56
(lp2805
g49
(g70
g51
NtRp2806
(dp2807
g54
(dp2808
g74
g75
ssg63
g2802
sg56
(lp2809
S'HTTP_ACCEPT_CHARSET'
p2810
asbag49
(g70
g51
NtRp2811
(dp2812
g54
(dp2813
g81
g82
ssg63
g2802
sg56
(lp2814
S':'
asbag49
(g70
g51
NtRp2815
(dp2816
g54
(dp2817
sg63
g2802
sg56
(lp2818
g49
(g50
g51
NtRp2819
(dp2820
g54
(dp2821
g62
I3
ssg63
g2815
sg56
(lp2822
g1313
asbasbasbag49
(g65
g51
NtRp2823
(dp2824
g54
(dp2825
sg63
g2777
sg56
(lp2826
g49
(g70
g51
NtRp2827
(dp2828
g54
(dp2829
g74
g75
ssg63
g2823
sg56
(lp2830
S'HTTP_ACCEPT_ENCODING'
p2831
asbag49
(g70
g51
NtRp2832
(dp2833
g54
(dp2834
g81
g82
ssg63
g2823
sg56
(lp2835
S':'
asbag49
(g70
g51
NtRp2836
(dp2837
g54
(dp2838
sg63
g2823
sg56
(lp2839
g49
(g50
g51
NtRp2840
(dp2841
g54
(dp2842
g62
I3
ssg63
g2836
sg56
(lp2843
g1335
asbasbasbag49
(g65
g51
NtRp2844
(dp2845
g54
(dp2846
sg63
g2777
sg56
(lp2847
g49
(g70
g51
NtRp2848
(dp2849
g54
(dp2850
g74
g75
ssg63
g2844
sg56
(lp2851
S'HTTP_ACCEPT_LANGUAGE'
p2852
asbag49
(g70
g51
NtRp2853
(dp2854
g54
(dp2855
g81
g82
ssg63
g2844
sg56
(lp2856
S':'
asbag49
(g70
g51
NtRp2857
(dp2858
g54
(dp2859
sg63
g2844
sg56
(lp2860
g49
(g50
g51
NtRp2861
(dp2862
g54
(dp2863
g62
I3
ssg63
g2857
sg56
(lp2864
g1357
asbasbasbag49
(g65
g51
NtRp2865
(dp2866
g54
(dp2867
sg63
g2777
sg56
(lp2868
g49
(g70
g51
NtRp2869
(dp2870
g54
(dp2871
g74
g75
ssg63
g2865
sg56
(lp2872
S'HTTP_CONNECTION'
p2873
asbag49
(g70
g51
NtRp2874
(dp2875
g54
(dp2876
g81
g82
ssg63
g2865
sg56
(lp2877
S':'
asbag49
(g70
g51
NtRp2878
(dp2879
g54
(dp2880
sg63
g2865
sg56
(lp2881
g49
(g50
g51
NtRp2882
(dp2883
g54
(dp2884
g62
I3
ssg63
g2878
sg56
(lp2885
g1379
asbasbasbag49
(g65
g51
NtRp2886
(dp2887
g54
(dp2888
sg63
g2777
sg56
(lp2889
g49
(g70
g51
NtRp2890
(dp2891
g54
(dp2892
g74
g75
ssg63
g2886
sg56
(lp2893
S'HTTP_COOKIE'
p2894
asbag49
(g70
g51
NtRp2895
(dp2896
g54
(dp2897
g81
g82
ssg63
g2886
sg56
(lp2898
S':'
asbag49
(g70
g51
NtRp2899
(dp2900
g54
(dp2901
sg63
g2886
sg56
(lp2902
g49
(g50
g51
NtRp2903
(dp2904
g54
(dp2905
g62
I3
ssg63
g2899
sg56
(lp2906
g1401
asbasbasbag49
(g65
g51
NtRp2907
(dp2908
g54
(dp2909
sg63
g2777
sg56
(lp2910
g49
(g70
g51
NtRp2911
(dp2912
g54
(dp2913
g74
g75
ssg63
g2907
sg56
(lp2914
S'HTTP_HOST'
p2915
asbag49
(g70
g51
NtRp2916
(dp2917
g54
(dp2918
g81
g82
ssg63
g2907
sg56
(lp2919
S':'
asbag49
(g70
g51
NtRp2920
(dp2921
g54
(dp2922
sg63
g2907
sg56
(lp2923
g49
(g50
g51
NtRp2924
(dp2925
g54
(dp2926
g62
I3
ssg63
g2920
sg56
(lp2927
g1423
asbasbasbag49
(g65
g51
NtRp2928
(dp2929
g54
(dp2930
sg63
g2777
sg56
(lp2931
g49
(g70
g51
NtRp2932
(dp2933
g54
(dp2934
g74
g75
ssg63
g2928
sg56
(lp2935
S'HTTP_REFERER'
p2936
asbag49
(g70
g51
NtRp2937
(dp2938
g54
(dp2939
g81
g82
ssg63
g2928
sg56
(lp2940
S':'
asbag49
(g70
g51
NtRp2941
(dp2942
g54
(dp2943
sg63
g2928
sg56
(lp2944
g49
(g50
g51
NtRp2945
(dp2946
g54
(dp2947
g62
I3
ssg63
g2941
sg56
(lp2948
g1445
asbasbasbag49
(g65
g51
NtRp2949
(dp2950
g54
(dp2951
sg63
g2777
sg56
(lp2952
g49
(g70
g51
NtRp2953
(dp2954
g54
(dp2955
g74
g75
ssg63
g2949
sg56
(lp2956
S'HTTP_USER_AGENT'
p2957
asbag49
(g70
g51
NtRp2958
(dp2959
g54
(dp2960
g81
g82
ssg63
g2949
sg56
(lp2961
S':'
asbag49
(g70
g51
NtRp2962
(dp2963
g54
(dp2964
sg63
g2949
sg56
(lp2965
g49
(g50
g51
NtRp2966
(dp2967
g54
(dp2968
g62
I3
ssg63
g2962
sg56
(lp2969
g1467
asbasbasbag49
(g65
g51
NtRp2970
(dp2971
g54
(dp2972
sg63
g2777
sg56
(lp2973
g49
(g70
g51
NtRp2974
(dp2975
g54
(dp2976
g74
g75
ssg63
g2970
sg56
(lp2977
S'PATH_INFO'
p2978
asbag49
(g70
g51
NtRp2979
(dp2980
g54
(dp2981
g81
g82
ssg63
g2970
sg56
(lp2982
S':'
asbag49
(g70
g51
NtRp2983
(dp2984
g54
(dp2985
sg63
g2970
sg56
(lp2986
g49
(g50
g51
NtRp2987
(dp2988
g54
(dp2989
g62
I3
ssg63
g2983
sg56
(lp2990
g1531
asbasbasbag49
(g65
g51
NtRp2991
(dp2992
g54
(dp2993
sg63
g2777
sg56
(lp2994
g49
(g70
g51
NtRp2995
(dp2996
g54
(dp2997
g74
g75
ssg63
g2991
sg56
(lp2998
S'QUERY_STRING'
p2999
asbag49
(g70
g51
NtRp3000
(dp3001
g54
(dp3002
g81
g82
ssg63
g2991
sg56
(lp3003
S':'
asbag49
(g70
g51
NtRp3004
(dp3005
g54
(dp3006
sg63
g2991
sg56
(lp3007
g49
(g50
g51
NtRp3008
(dp3009
g54
(dp3010
g62
I3
ssg63
g3004
sg56
(lp3011
S''
asbasbasbag49
(g65
g51
NtRp3012
(dp3013
g54
(dp3014
sg63
g2777
sg56
(lp3015
g49
(g70
g51
NtRp3016
(dp3017
g54
(dp3018
g74
g75
ssg63
g3012
sg56
(lp3019
S'REMOTE_ADDR'
p3020
asbag49
(g70
g51
NtRp3021
(dp3022
g54
(dp3023
g81
g82
ssg63
g3012
sg56
(lp3024
S':'
asbag49
(g70
g51
NtRp3025
(dp3026
g54
(dp3027
sg63
g3012
sg56
(lp3028
g49
(g50
g51
NtRp3029
(dp3030
g54
(dp3031
g62
I3
ssg63
g3025
sg56
(lp3032
g204
asbasbasbag49
(g65
g51
NtRp3033
(dp3034
g54
(dp3035
sg63
g2777
sg56
(lp3036
g49
(g70
g51
NtRp3037
(dp3038
g54
(dp3039
g74
g75
ssg63
g3033
sg56
(lp3040
S'REMOTE_PORT'
p3041
asbag49
(g70
g51
NtRp3042
(dp3043
g54
(dp3044
g81
g82
ssg63
g3033
sg56
(lp3045
S':'
asbag49
(g70
g51
NtRp3046
(dp3047
g54
(dp3048
sg63
g3033
sg56
(lp3049
g49
(g50
g51
NtRp3050
(dp3051
g54
(dp3052
g62
I3
ssg63
g3046
sg56
(lp3053
g1595
asbasbasbag49
(g65
g51
NtRp3054
(dp3055
g54
(dp3056
sg63
g2777
sg56
(lp3057
g49
(g70
g51
NtRp3058
(dp3059
g54
(dp3060
g74
g75
ssg63
g3054
sg56
(lp3061
S'REQUEST_METHOD'
p3062
asbag49
(g70
g51
NtRp3063
(dp3064
g54
(dp3065
g81
g82
ssg63
g3054
sg56
(lp3066
S':'
asbag49
(g70
g51
NtRp3067
(dp3068
g54
(dp3069
sg63
g3054
sg56
(lp3070
g49
(g50
g51
NtRp3071
(dp3072
g54
(dp3073
g62
I3
ssg63
g3067
sg56
(lp3074
g1617
asbasbasbag49
(g65
g51
NtRp3075
(dp3076
g54
(dp3077
sg63
g2777
sg56
(lp3078
g49
(g70
g51
NtRp3079
(dp3080
g54
(dp3081
g74
g75
ssg63
g3075
sg56
(lp3082
S'REQUEST_URI'
p3083
asbag49
(g70
g51
NtRp3084
(dp3085
g54
(dp3086
g81
g82
ssg63
g3075
sg56
(lp3087
S':'
asbag49
(g70
g51
NtRp3088
(dp3089
g54
(dp3090
sg63
g3075
sg56
(lp3091
g49
(g50
g51
NtRp3092
(dp3093
g54
(dp3094
g62
I3
ssg63
g3088
sg56
(lp3095
g1531
asbasbasbag49
(g65
g51
NtRp3096
(dp3097
g54
(dp3098
sg63
g2777
sg56
(lp3099
g49
(g70
g51
NtRp3100
(dp3101
g54
(dp3102
g74
g75
ssg63
g3096
sg56
(lp3103
S'SCRIPT_NAME'
p3104
asbag49
(g70
g51
NtRp3105
(dp3106
g54
(dp3107
g81
g82
ssg63
g3096
sg56
(lp3108
S':'
asbag49
(g70
g51
NtRp3109
(dp3110
g54
(dp3111
sg63
g3096
sg56
(lp3112
g49
(g50
g51
NtRp3113
(dp3114
g54
(dp3115
g62
I3
ssg63
g3109
sg56
(lp3116
S''
asbasbasbag49
(g65
g51
NtRp3117
(dp3118
g54
(dp3119
sg63
g2777
sg56
(lp3120
g49
(g70
g51
NtRp3121
(dp3122
g54
(dp3123
g74
g75
ssg63
g3117
sg56
(lp3124
S'SERVER_NAME'
p3125
asbag49
(g70
g51
NtRp3126
(dp3127
g54
(dp3128
g81
g82
ssg63
g3117
sg56
(lp3129
S':'
asbag49
(g70
g51
NtRp3130
(dp3131
g54
(dp3132
sg63
g3117
sg56
(lp3133
g49
(g50
g51
NtRp3134
(dp3135
g54
(dp3136
g62
I3
ssg63
g3130
sg56
(lp3137
g1681
asbasbasbag49
(g65
g51
NtRp3138
(dp3139
g54
(dp3140
sg63
g2777
sg56
(lp3141
g49
(g70
g51
NtRp3142
(dp3143
g54
(dp3144
g74
g75
ssg63
g3138
sg56
(lp3145
S'SERVER_PORT'
p3146
asbag49
(g70
g51
NtRp3147
(dp3148
g54
(dp3149
g81
g82
ssg63
g3138
sg56
(lp3150
S':'
asbag49
(g70
g51
NtRp3151
(dp3152
g54
(dp3153
sg63
g3138
sg56
(lp3154
g49
(g50
g51
NtRp3155
(dp3156
g54
(dp3157
g62
I3
ssg63
g3151
sg56
(lp3158
g1703
asbasbasbag49
(g65
g51
NtRp3159
(dp3160
g54
(dp3161
sg63
g2777
sg56
(lp3162
g49
(g70
g51
NtRp3163
(dp3164
g54
(dp3165
g74
g75
ssg63
g3159
sg56
(lp3166
S'SERVER_PROTOCOL'
p3167
asbag49
(g70
g51
NtRp3168
(dp3169
g54
(dp3170
g81
g82
ssg63
g3159
sg56
(lp3171
S':'
asbag49
(g70
g51
NtRp3172
(dp3173
g54
(dp3174
sg63
g3159
sg56
(lp3175
g49
(g50
g51
NtRp3176
(dp3177
g54
(dp3178
g62
I3
ssg63
g3172
sg56
(lp3179
g1725
asbasbasbag49
(g65
g51
NtRp3180
(dp3181
g54
(dp3182
sg63
g2777
sg56
(lp3183
g49
(g70
g51
NtRp3184
(dp3185
g54
(dp3186
g74
g75
ssg63
g3180
sg56
(lp3187
S'SERVER_SOFTWARE'
p3188
asbag49
(g70
g51
NtRp3189
(dp3190
g54
(dp3191
g81
g82
ssg63
g3180
sg56
(lp3192
S':'
asbag49
(g70
g51
NtRp3193
(dp3194
g54
(dp3195
sg63
g3180
sg56
(lp3196
g49
(g50
g51
NtRp3197
(dp3198
g54
(dp3199
g62
I3
ssg63
g3193
sg56
(lp3200
g1747
asbasbasbag49
(g65
g51
NtRp3201
(dp3202
g54
(dp3203
sg63
g2777
sg56
(lp3204
g49
(g70
g51
NtRp3205
(dp3206
g54
(dp3207
g74
g75
ssg63
g3201
sg56
(lp3208
S'wsgi.errors'
p3209
asbag49
(g70
g51
NtRp3210
(dp3211
g54
(dp3212
g81
g82
ssg63
g3201
sg56
(lp3213
S':'
asbag49
(g70
g51
NtRp3214
(dp3215
g54
(dp3216
sg63
g3201
sg56
(lp3217
g49
(g50
g51
NtRp3218
(dp3219
g54
(dp3220
g62
I3
ssg63
g3214
sg56
(lp3221
S"<open file '<stderr>', mode 'w' at 0x750b0>"
p3222
asbasbasbag49
(g65
g51
NtRp3223
(dp3224
g54
(dp3225
sg63
g2777
sg56
(lp3226
g49
(g70
g51
NtRp3227
(dp3228
g54
(dp3229
g74
g75
ssg63
g3223
sg56
(lp3230
S'wsgi.file_wrapper'
p3231
asbag49
(g70
g51
NtRp3232
(dp3233
g54
(dp3234
g81
g82
ssg63
g3223
sg56
(lp3235
S':'
asbag49
(g70
g51
NtRp3236
(dp3237
g54
(dp3238
sg63
g3223
sg56
(lp3239
g49
(g50
g51
NtRp3240
(dp3241
g54
(dp3242
g62
I3
ssg63
g3236
sg56
(lp3243
S'<class wsgiref.util.FileWrapper at 0x57d00c0>'
p3244
asbasbasbag49
(g65
g51
NtRp3245
(dp3246
g54
(dp3247
sg63
g2777
sg56
(lp3248
g49
(g70
g51
NtRp3249
(dp3250
g54
(dp3251
g74
g75
ssg63
g3245
sg56
(lp3252
S'wsgi.input'
p3253
asbag49
(g70
g51
NtRp3254
(dp3255
g54
(dp3256
g81
g82
ssg63
g3245
sg56
(lp3257
S':'
asbag49
(g70
g51
NtRp3258
(dp3259
g54
(dp3260
sg63
g3245
sg56
(lp3261
g49
(g50
g51
NtRp3262
(dp3263
g54
(dp3264
g62
I3
ssg63
g3258
sg56
(lp3265
S'<cStringIO.StringO object at 0xa3f00e0>'
p3266
asbasbasbag49
(g65
g51
NtRp3267
(dp3268
g54
(dp3269
sg63
g2777
sg56
(lp3270
g49
(g70
g51
NtRp3271
(dp3272
g54
(dp3273
g74
g75
ssg63
g3267
sg56
(lp3274
S'wsgi.multiprocess'
p3275
asbag49
(g70
g51
NtRp3276
(dp3277
g54
(dp3278
g81
g82
ssg63
g3267
sg56
(lp3279
S':'
asbag49
(g70
g51
NtRp3280
(dp3281
g54
(dp3282
sg63
g3267
sg56
(lp3283
g49
(g50
g51
NtRp3284
(dp3285
g54
(dp3286
g62
I3
ssg63
g3280
sg56
(lp3287
g92
asbasbasbag49
(g65
g51
NtRp3288
(dp3289
g54
(dp3290
sg63
g2777
sg56
(lp3291
g49
(g70
g51
NtRp3292
(dp3293
g54
(dp3294
g74
g75
ssg63
g3288
sg56
(lp3295
S'wsgi.multithread'
p3296
asbag49
(g70
g51
NtRp3297
(dp3298
g54
(dp3299
g81
g82
ssg63
g3288
sg56
(lp3300
S':'
asbag49
(g70
g51
NtRp3301
(dp3302
g54
(dp3303
sg63
g3288
sg56
(lp3304
g49
(g50
g51
NtRp3305
(dp3306
g54
(dp3307
g62
I3
ssg63
g3301
sg56
(lp3308
g1986
asbasbasbag49
(g65
g51
NtRp3309
(dp3310
g54
(dp3311
sg63
g2777
sg56
(lp3312
g49
(g70
g51
NtRp3313
(dp3314
g54
(dp3315
g74
g75
ssg63
g3309
sg56
(lp3316
S'wsgi.run_once'
p3317
asbag49
(g70
g51
NtRp3318
(dp3319
g54
(dp3320
g81
g82
ssg63
g3309
sg56
(lp3321
S':'
asbag49
(g70
g51
NtRp3322
(dp3323
g54
(dp3324
sg63
g3309
sg56
(lp3325
g49
(g50
g51
NtRp3326
(dp3327
g54
(dp3328
g62
I3
ssg63
g3322
sg56
(lp3329
g92
asbasbasbag49
(g65
g51
NtRp3330
(dp3331
g54
(dp3332
sg63
g2777
sg56
(lp3333
g49
(g70
g51
NtRp3334
(dp3335
g54
(dp3336
g74
g75
ssg63
g3330
sg56
(lp3337
S'wsgi.url_scheme'
p3338
asbag49
(g70
g51
NtRp3339
(dp3340
g54
(dp3341
g81
g82
ssg63
g3330
sg56
(lp3342
S':'
asbag49
(g70
g51
NtRp3343
(dp3344
g54
(dp3345
sg63
g3330
sg56
(lp3346
g49
(g50
g51
NtRp3347
(dp3348
g54
(dp3349
g62
I3
ssg63
g3343
sg56
(lp3350
g2029
asbasbasbag49
(g65
g51
NtRp3351
(dp3352
g54
(dp3353
sg63
g2777
sg56
(lp3354
g49
(g70
g51
NtRp3355
(dp3356
g54
(dp3357
g74
g75
ssg63
g3351
sg56
(lp3358
S'wsgi.version'
p3359
asbag49
(g70
g51
NtRp3360
(dp3361
g54
(dp3362
g81
g82
ssg63
g3351
sg56
(lp3363
S':'
asbag49
(g70
g51
NtRp3364
(dp3365
g54
(dp3366
sg63
g3351
sg56
(lp3367
g49
(g50
g51
NtRp3368
(dp3369
g54
(dp3370
g62
I3
ssg63
g3364
sg56
(lp3371
S'1'
asbasbasbasbasbasbasbasbasbasbasbasbasbsS'frames'
p3372
(lp3373
(dp3374
S'file'
p3375
S'/Applications/web2py.app/Contents/Resources/gluon/restricted.py'
p3376
sS'dump'
p3377
(dp3378
sS'lnum'
p3379
I209
sS'lines'
p3380
(dp3381
sS'call'
p3382
S"(code='# -*- coding: utf-8 -*-\\n# this file is released ...m=crud())\\n\\nresponse._vars=response._caller(edit)\\n', environment={'A': <class 'gluon.html.A'>, 'Auth': <class 'gluon.tools.Auth'>, 'B': <class 'gluon.html.B'>, 'BEAUTIFY': <class 'gluon.html.BEAUTIFY'>, 'BODY': <class 'gluon.html.BODY'>, 'BR': <class 'gluon.html.BR'>, 'BUTTON': <class 'gluon.html.BUTTON'>, 'CAT': <class 'gluon.html.CAT'>, 'CENTER': <class 'gluon.html.CENTER'>, 'CLEANUP': <class 'gluon.validators.CLEANUP'>, ...}, layer='/Applications/web2py.app/Contents/Resources/applications/183_Project/controllers/default.py')"
p3383
sS'func'
p3384
S'restricted'
p3385
sa(dp3386
g3375
S'/Applications/web2py.app/Contents/Resources/applications/183_Project/controllers/default.py'
p3387
sg3377
(dp3388
sg3379
I87
sg3380
(dp3389
I76
S'    http://..../[app]/default/data/update/[table]/[id]'
p3390
sI77
S'    http://..../[app]/default/data/delete/[table]/[id]'
p3391
sI78
S'    http://..../[app]/default/data/select/[table]'
p3392
sI79
S'    http://..../[app]/default/data/search/[table]'
p3393
sI80
S'    but URLs must be signed, i.e. linked with'
p3394
sI81
S"      A('table',_href=URL('data/tables',user_signature=True))"
p3395
sI82
S'    or with the signed load operator'
p3396
sI83
S"      LOAD('default','data.load',args='tables',ajax=True,user_signature=True)"
p3397
sI84
S'    """'
p3398
sI85
S'    return dict(form=crud())'
p3399
ssg3382
S'()'
p3400
sg3384
S'<module>'
p3401
sa(dp3402
g3375
S'/Applications/web2py.app/Contents/Resources/gluon/globals.py'
p3403
sg3377
(dp3404
sg3379
I186
sg3380
(dp3405
sg3382
S'(f=<function edit at 0xa55ccb0>)'
p3406
sg3384
S'<lambda>'
p3407
sa(dp3408
g3375
S'/Applications/web2py.app/Contents/Resources/gluon/tools.py'
p3409
sg3377
(dp3410
sg3379
I2809
sg3380
(dp3411
sg3382
S'(*a=(), **b={})'
p3412
sg3384
S'f'
sa(dp3413
g3375
S'/Applications/web2py.app/Contents/Resources/applications/183_Project/controllers/default.py'
p3414
sg3377
(dp3415
sg3379
I29
sg3380
(dp3416
I32
S"        redirect(URL('index'))"
p3417
sI33
S'    return dict(form=form)'
p3418
sI24
S"    clinic = db.clinics(request.args[0]) or redirect(URL('index'))"
p3419
sI25
S'    return dict(clinic=clinic)'
p3420
sI26
S''
sI27
S'@auth.requires_login()'
p3421
sI28
S'def edit():'
p3422
sI29
S'    form = SQLFORM(db.notes)'
p3423
sI30
S'    if form.process().accepted:'
p3424
sI31
S"        session.flash = T('Changes updated.')"
p3425
ssg3382
S'()'
p3426
sg3384
S'edit'
p3427
sa(dp3428
g3375
S'/Applications/web2py.app/Contents/Resources/gluon/dal.py'
p3429
sg3377
(dp3430
sg3379
I7153
sg3380
(dp3431
sg3382
S"(self=<DAL sqlite://storage.sqlite>, key='notes')"
p3432
sg3384
S'__getattr__'
p3433
sasS'pyver'
p3434
S'Python 2.5.1: /Applications/web2py.app/Contents/MacOS/python'
p3435
sS'session'
p3436
g49
(g50
g51
NtRp3437
(dp3438
g54
(dp3439
sg56
(lp3440
g49
(g58
g51
NtRp3441
(dp3442
g54
(dp3443
g62
I5
ssg63
Nsg56
(lp3444
g49
(g65
g51
NtRp3445
(dp3446
g54
(dp3447
sg63
g3441
sg56
(lp3448
g49
(g70
g51
NtRp3449
(dp3450
g54
(dp3451
g74
g75
ssg63
g3445
sg56
(lp3452
S'auth'
p3453
asbag49
(g70
g51
NtRp3454
(dp3455
g54
(dp3456
g81
g82
ssg63
g3445
sg56
(lp3457
S':'
asbag49
(g70
g51
NtRp3458
(dp3459
g54
(dp3460
sg63
g3445
sg56
(lp3461
g49
(g50
g51
NtRp3462
(dp3463
g54
(dp3464
g62
I5
ssg63
g3458
sg56
(lp3465
g49
(g58
g51
NtRp3466
(dp3467
g54
(dp3468
g62
I4
ssg63
Nsg56
(lp3469
g49
(g65
g51
NtRp3470
(dp3471
g54
(dp3472
sg63
g3466
sg56
(lp3473
g49
(g70
g51
NtRp3474
(dp3475
g54
(dp3476
g74
g75
ssg63
g3470
sg56
(lp3477
S'expiration'
p3478
asbag49
(g70
g51
NtRp3479
(dp3480
g54
(dp3481
g81
g82
ssg63
g3470
sg56
(lp3482
S':'
asbag49
(g70
g51
NtRp3483
(dp3484
g54
(dp3485
sg63
g3470
sg56
(lp3486
g49
(g50
g51
NtRp3487
(dp3488
g54
(dp3489
g62
I4
ssg63
g3483
sg56
(lp3490
S'3600'
p3491
asbasbasbag49
(g65
g51
NtRp3492
(dp3493
g54
(dp3494
sg63
g3466
sg56
(lp3495
g49
(g70
g51
NtRp3496
(dp3497
g54
(dp3498
g74
g75
ssg63
g3492
sg56
(lp3499
S'hmac_key'
p3500
asbag49
(g70
g51
NtRp3501
(dp3502
g54
(dp3503
g81
g82
ssg63
g3492
sg56
(lp3504
S':'
asbag49
(g70
g51
NtRp3505
(dp3506
g54
(dp3507
sg63
g3492
sg56
(lp3508
g49
(g50
g51
NtRp3509
(dp3510
g54
(dp3511
g62
I4
ssg63
g3505
sg56
(lp3512
S'7c667498-3d5a-4dd2-8ee3-687b9c5b81e6'
p3513
asbasbasbag49
(g65
g51
NtRp3514
(dp3515
g54
(dp3516
sg63
g3466
sg56
(lp3517
g49
(g70
g51
NtRp3518
(dp3519
g54
(dp3520
g74
g75
ssg63
g3514
sg56
(lp3521
S'last_visit'
p3522
asbag49
(g70
g51
NtRp3523
(dp3524
g54
(dp3525
g81
g82
ssg63
g3514
sg56
(lp3526
S':'
asbag49
(g70
g51
NtRp3527
(dp3528
g54
(dp3529
sg63
g3514
sg56
(lp3530
g49
(g50
g51
NtRp3531
(dp3532
g54
(dp3533
g62
I4
ssg63
g3527
sg56
(lp3534
S'datetime.datetime(2012, 10, 30, 16, 47, 49, 351238)'
p3535
asbasbasbag49
(g65
g51
NtRp3536
(dp3537
g54
(dp3538
sg63
g3466
sg56
(lp3539
g49
(g70
g51
NtRp3540
(dp3541
g54
(dp3542
g74
g75
ssg63
g3536
sg56
(lp3543
S'user'
p3544
asbag49
(g70
g51
NtRp3545
(dp3546
g54
(dp3547
g81
g82
ssg63
g3536
sg56
(lp3548
S':'
asbag49
(g70
g51
NtRp3549
(dp3550
g54
(dp3551
sg63
g3536
sg56
(lp3552
g49
(g50
g51
NtRp3553
(dp3554
g54
(dp3555
g62
I4
ssg63
g3549
sg56
(lp3556
g49
(g58
g51
NtRp3557
(dp3558
g54
(dp3559
g62
I3
ssg63
Nsg56
(lp3560
g49
(g65
g51
NtRp3561
(dp3562
g54
(dp3563
sg63
g3557
sg56
(lp3564
g49
(g70
g51
NtRp3565
(dp3566
g54
(dp3567
g74
g75
ssg63
g3561
sg56
(lp3568
S'email'
p3569
asbag49
(g70
g51
NtRp3570
(dp3571
g54
(dp3572
g81
g82
ssg63
g3561
sg56
(lp3573
S':'
asbag49
(g70
g51
NtRp3574
(dp3575
g54
(dp3576
sg63
g3561
sg56
(lp3577
g49
(g50
g51
NtRp3578
(dp3579
g54
(dp3580
g62
I3
ssg63
g3574
sg56
(lp3581
S'lukeisunoriginal@gmail.com'
p3582
asbasbasbag49
(g65
g51
NtRp3583
(dp3584
g54
(dp3585
sg63
g3557
sg56
(lp3586
g49
(g70
g51
NtRp3587
(dp3588
g54
(dp3589
g74
g75
ssg63
g3583
sg56
(lp3590
S'first_name'
p3591
asbag49
(g70
g51
NtRp3592
(dp3593
g54
(dp3594
g81
g82
ssg63
g3583
sg56
(lp3595
S':'
asbag49
(g70
g51
NtRp3596
(dp3597
g54
(dp3598
sg63
g3583
sg56
(lp3599
g49
(g50
g51
NtRp3600
(dp3601
g54
(dp3602
g62
I3
ssg63
g3596
sg56
(lp3603
S'Luke'
p3604
asbasbasbag49
(g65
g51
NtRp3605
(dp3606
g54
(dp3607
sg63
g3557
sg56
(lp3608
g49
(g70
g51
NtRp3609
(dp3610
g54
(dp3611
g74
g75
ssg63
g3605
sg56
(lp3612
S'id'
p3613
asbag49
(g70
g51
NtRp3614
(dp3615
g54
(dp3616
g81
g82
ssg63
g3605
sg56
(lp3617
S':'
asbag49
(g70
g51
NtRp3618
(dp3619
g54
(dp3620
sg63
g3605
sg56
(lp3621
g49
(g50
g51
NtRp3622
(dp3623
g54
(dp3624
g62
I3
ssg63
g3618
sg56
(lp3625
S'1'
asbasbasbag49
(g65
g51
NtRp3626
(dp3627
g54
(dp3628
sg63
g3557
sg56
(lp3629
g49
(g70
g51
NtRp3630
(dp3631
g54
(dp3632
g74
g75
ssg63
g3626
sg56
(lp3633
S'last_name'
p3634
asbag49
(g70
g51
NtRp3635
(dp3636
g54
(dp3637
g81
g82
ssg63
g3626
sg56
(lp3638
S':'
asbag49
(g70
g51
NtRp3639
(dp3640
g54
(dp3641
sg63
g3626
sg56
(lp3642
g49
(g50
g51
NtRp3643
(dp3644
g54
(dp3645
g62
I3
ssg63
g3639
sg56
(lp3646
S'Eisenberg'
p3647
asbasbasbag49
(g65
g51
NtRp3648
(dp3649
g54
(dp3650
sg63
g3557
sg56
(lp3651
g49
(g70
g51
NtRp3652
(dp3653
g54
(dp3654
g74
g75
ssg63
g3648
sg56
(lp3655
S'password'
p3656
asbag49
(g70
g51
NtRp3657
(dp3658
g54
(dp3659
g81
g82
ssg63
g3648
sg56
(lp3660
S':'
asbag49
(g70
g51
NtRp3661
(dp3662
g54
(dp3663
sg63
g3648
sg56
(lp3664
g49
(g50
g51
NtRp3665
(dp3666
g54
(dp3667
g62
I3
ssg63
g3661
sg56
(lp3668
S'pbkdf2(1000,20,sha512)$b676ede2023b3b64$46f5cd9f2bc1d704f35bfdaadeef8b1f2f1aca24'
p3669
asbasbasbag49
(g65
g51
NtRp3670
(dp3671
g54
(dp3672
sg63
g3557
sg56
(lp3673
g49
(g70
g51
NtRp3674
(dp3675
g54
(dp3676
g74
g75
ssg63
g3670
sg56
(lp3677
S'registration_id'
p3678
asbag49
(g70
g51
NtRp3679
(dp3680
g54
(dp3681
g81
g82
ssg63
g3670
sg56
(lp3682
S':'
asbag49
(g70
g51
NtRp3683
(dp3684
g54
(dp3685
sg63
g3670
sg56
(lp3686
g49
(g50
g51
NtRp3687
(dp3688
g54
(dp3689
g62
I3
ssg63
g3683
sg56
(lp3690
S''
asbasbasbag49
(g65
g51
NtRp3691
(dp3692
g54
(dp3693
sg63
g3557
sg56
(lp3694
g49
(g70
g51
NtRp3695
(dp3696
g54
(dp3697
g74
g75
ssg63
g3691
sg56
(lp3698
S'registration_key'
p3699
asbag49
(g70
g51
NtRp3700
(dp3701
g54
(dp3702
g81
g82
ssg63
g3691
sg56
(lp3703
S':'
asbag49
(g70
g51
NtRp3704
(dp3705
g54
(dp3706
sg63
g3691
sg56
(lp3707
g49
(g50
g51
NtRp3708
(dp3709
g54
(dp3710
g62
I3
ssg63
g3704
sg56
(lp3711
S''
asbasbasbag49
(g65
g51
NtRp3712
(dp3713
g54
(dp3714
sg63
g3557
sg56
(lp3715
g49
(g70
g51
NtRp3716
(dp3717
g54
(dp3718
g74
g75
ssg63
g3712
sg56
(lp3719
S'reset_password_key'
p3720
asbag49
(g70
g51
NtRp3721
(dp3722
g54
(dp3723
g81
g82
ssg63
g3712
sg56
(lp3724
S':'
asbag49
(g70
g51
NtRp3725
(dp3726
g54
(dp3727
sg63
g3712
sg56
(lp3728
g49
(g50
g51
NtRp3729
(dp3730
g54
(dp3731
g62
I3
ssg63
g3725
sg56
(lp3732
S''
asbasbasbasbasbasbasbag49
(g65
g51
NtRp3733
(dp3734
g54
(dp3735
sg63
g3466
sg56
(lp3736
g49
(g70
g51
NtRp3737
(dp3738
g54
(dp3739
g74
g75
ssg63
g3733
sg56
(lp3740
S'user_groups'
p3741
asbag49
(g70
g51
NtRp3742
(dp3743
g54
(dp3744
g81
g82
ssg63
g3733
sg56
(lp3745
S':'
asbag49
(g70
g51
NtRp3746
(dp3747
g54
(dp3748
sg63
g3733
sg56
(lp3749
g49
(g50
g51
NtRp3750
(dp3751
g54
(dp3752
g62
I4
ssg63
g3746
sg56
(lp3753
g49
(g58
g51
NtRp3754
(dp3755
g54
(dp3756
g62
I3
ssg63
Nsg56
(lp3757
g49
(g65
g51
NtRp3758
(dp3759
g54
(dp3760
sg63
g3754
sg56
(lp3761
g49
(g70
g51
NtRp3762
(dp3763
g54
(dp3764
g74
g75
ssg63
g3758
sg56
(lp3765
S'1'
asbag49
(g70
g51
NtRp3766
(dp3767
g54
(dp3768
g81
g82
ssg63
g3758
sg56
(lp3769
S':'
asbag49
(g70
g51
NtRp3770
(dp3771
g54
(dp3772
sg63
g3758
sg56
(lp3773
g49
(g50
g51
NtRp3774
(dp3775
g54
(dp3776
g62
I3
ssg63
g3770
sg56
(lp3777
S'user_1'
p3778
asbasbasbasbasbasbasbasbasbasbasbag49
(g65
g51
NtRp3779
(dp3780
g54
(dp3781
sg63
g3441
sg56
(lp3782
g49
(g70
g51
NtRp3783
(dp3784
g54
(dp3785
g74
g75
ssg63
g3779
sg56
(lp3786
S'flash'
p3787
asbag49
(g70
g51
NtRp3788
(dp3789
g54
(dp3790
g81
g82
ssg63
g3779
sg56
(lp3791
S':'
asbag49
(g70
g51
NtRp3792
(dp3793
g54
(dp3794
sg63
g3779
sg56
(lp3795
g49
(g50
g51
NtRp3796
(dp3797
g54
(dp3798
g62
I5
ssg63
g3792
sg56
(lp3799
S'None'
p3800
asbasbasbasbasbsS'etype'
p3801
S"<type 'exceptions.AttributeError'>"
p3802
sS'date'
p3803
S'Tue Oct 30 16:47:51 2012'
p3804
sS'response'
p3805
g49
(g50
g51
NtRp3806
(dp3807
g54
(dp3808
sg56
(lp3809
g49
(g58
g51
NtRp3810
(dp3811
g54
(dp3812
g62
I5
ssg63
Nsg56
(lp3813
g49
(g65
g51
NtRp3814
(dp3815
g54
(dp3816
sg63
g3810
sg56
(lp3817
g49
(g70
g51
NtRp3818
(dp3819
g54
(dp3820
g74
g75
ssg63
g3814
sg56
(lp3821
g147
asbag49
(g70
g51
NtRp3822
(dp3823
g54
(dp3824
g81
g82
ssg63
g3814
sg56
(lp3825
S':'
asbag49
(g70
g51
NtRp3826
(dp3827
g54
(dp3828
sg63
g3814
sg56
(lp3829
g49
(g50
g51
NtRp3830
(dp3831
g54
(dp3832
g62
I5
ssg63
g3826
sg56
(lp3833
S'<cStringIO.StringO object at 0xa68d780>'
p3834
asbasbasbag49
(g65
g51
NtRp3835
(dp3836
g54
(dp3837
sg63
g3810
sg56
(lp3838
g49
(g70
g51
NtRp3839
(dp3840
g54
(dp3841
g74
g75
ssg63
g3835
sg56
(lp3842
g235
asbag49
(g70
g51
NtRp3843
(dp3844
g54
(dp3845
g81
g82
ssg63
g3835
sg56
(lp3846
S':'
asbag49
(g70
g51
NtRp3847
(dp3848
g54
(dp3849
sg63
g3835
sg56
(lp3850
g49
(g50
g51
NtRp3851
(dp3852
g54
(dp3853
g62
I5
ssg63
g3847
sg56
(lp3854
g49
(g58
g51
NtRp3855
(dp3856
g54
(dp3857
g62
I4
ssg63
Nsg56
(lp3858
g49
(g65
g51
NtRp3859
(dp3860
g54
(dp3861
sg63
g3855
sg56
(lp3862
g49
(g70
g51
NtRp3863
(dp3864
g54
(dp3865
g74
g75
ssg63
g3859
sg56
(lp3866
S'session_id_183_project'
p3867
asbag49
(g70
g51
NtRp3868
(dp3869
g54
(dp3870
g81
g82
ssg63
g3859
sg56
(lp3871
S':'
asbag49
(g70
g51
NtRp3872
(dp3873
g54
(dp3874
sg63
g3859
sg56
(lp3875
g49
(g50
g51
NtRp3876
(dp3877
g54
(dp3878
g62
I4
ssg63
g3872
sg56
(lp3879
g273
ag49
(g58
g51
NtRp3880
(dp3881
g54
(dp3882
g62
I3
ssg63
Nsg56
(lp3883
g49
(g65
g51
NtRp3884
(dp3885
g54
(dp3886
sg63
g3880
sg56
(lp3887
g49
(g70
g51
NtRp3888
(dp3889
g54
(dp3890
g74
g75
ssg63
g3884
sg56
(lp3891
g286
asbag49
(g70
g51
NtRp3892
(dp3893
g54
(dp3894
g81
g82
ssg63
g3884
sg56
(lp3895
S':'
asbag49
(g70
g51
NtRp3896
(dp3897
g54
(dp3898
sg63
g3884
sg56
(lp3899
g49
(g50
g51
NtRp3900
(dp3901
g54
(dp3902
g62
I3
ssg63
g3896
sg56
(lp3903
S''
asbasbasbag49
(g65
g51
NtRp3904
(dp3905
g54
(dp3906
sg63
g3880
sg56
(lp3907
g49
(g70
g51
NtRp3908
(dp3909
g54
(dp3910
g74
g75
ssg63
g3904
sg56
(lp3911
g307
asbag49
(g70
g51
NtRp3912
(dp3913
g54
(dp3914
g81
g82
ssg63
g3904
sg56
(lp3915
S':'
asbag49
(g70
g51
NtRp3916
(dp3917
g54
(dp3918
sg63
g3904
sg56
(lp3919
g49
(g50
g51
NtRp3920
(dp3921
g54
(dp3922
g62
I3
ssg63
g3916
sg56
(lp3923
S''
asbasbasbag49
(g65
g51
NtRp3924
(dp3925
g54
(dp3926
sg63
g3880
sg56
(lp3927
g49
(g70
g51
NtRp3928
(dp3929
g54
(dp3930
g74
g75
ssg63
g3924
sg56
(lp3931
g328
asbag49
(g70
g51
NtRp3932
(dp3933
g54
(dp3934
g81
g82
ssg63
g3924
sg56
(lp3935
S':'
asbag49
(g70
g51
NtRp3936
(dp3937
g54
(dp3938
sg63
g3924
sg56
(lp3939
g49
(g50
g51
NtRp3940
(dp3941
g54
(dp3942
g62
I3
ssg63
g3936
sg56
(lp3943
S''
asbasbasbag49
(g65
g51
NtRp3944
(dp3945
g54
(dp3946
sg63
g3880
sg56
(lp3947
g49
(g70
g51
NtRp3948
(dp3949
g54
(dp3950
g74
g75
ssg63
g3944
sg56
(lp3951
g349
asbag49
(g70
g51
NtRp3952
(dp3953
g54
(dp3954
g81
g82
ssg63
g3944
sg56
(lp3955
S':'
asbag49
(g70
g51
NtRp3956
(dp3957
g54
(dp3958
sg63
g3944
sg56
(lp3959
g49
(g50
g51
NtRp3960
(dp3961
g54
(dp3962
g62
I3
ssg63
g3956
sg56
(lp3963
S''
asbasbasbag49
(g65
g51
NtRp3964
(dp3965
g54
(dp3966
sg63
g3880
sg56
(lp3967
g49
(g70
g51
NtRp3968
(dp3969
g54
(dp3970
g74
g75
ssg63
g3964
sg56
(lp3971
g370
asbag49
(g70
g51
NtRp3972
(dp3973
g54
(dp3974
g81
g82
ssg63
g3964
sg56
(lp3975
S':'
asbag49
(g70
g51
NtRp3976
(dp3977
g54
(dp3978
sg63
g3964
sg56
(lp3979
g49
(g50
g51
NtRp3980
(dp3981
g54
(dp3982
g62
I3
ssg63
g3976
sg56
(lp3983
S'/'
asbasbasbag49
(g65
g51
NtRp3984
(dp3985
g54
(dp3986
sg63
g3880
sg56
(lp3987
g49
(g70
g51
NtRp3988
(dp3989
g54
(dp3990
g74
g75
ssg63
g3984
sg56
(lp3991
g391
asbag49
(g70
g51
NtRp3992
(dp3993
g54
(dp3994
g81
g82
ssg63
g3984
sg56
(lp3995
S':'
asbag49
(g70
g51
NtRp3996
(dp3997
g54
(dp3998
sg63
g3984
sg56
(lp3999
g49
(g50
g51
NtRp4000
(dp4001
g54
(dp4002
g62
I3
ssg63
g3996
sg56
(lp4003
S''
asbasbasbag49
(g65
g51
NtRp4004
(dp4005
g54
(dp4006
sg63
g3880
sg56
(lp4007
g49
(g70
g51
NtRp4008
(dp4009
g54
(dp4010
g74
g75
ssg63
g4004
sg56
(lp4011
g412
asbag49
(g70
g51
NtRp4012
(dp4013
g54
(dp4014
g81
g82
ssg63
g4004
sg56
(lp4015
S':'
asbag49
(g70
g51
NtRp4016
(dp4017
g54
(dp4018
sg63
g4004
sg56
(lp4019
g49
(g50
g51
NtRp4020
(dp4021
g54
(dp4022
g62
I3
ssg63
g4016
sg56
(lp4023
S''
asbasbasbasbasbasbasbasbasbasbasbag49
(g65
g51
NtRp4024
(dp4025
g54
(dp4026
sg63
g3810
sg56
(lp4027
g49
(g70
g51
NtRp4028
(dp4029
g54
(dp4030
g74
g75
ssg63
g4024
sg56
(lp4031
S'delimiters'
p4032
asbag49
(g70
g51
NtRp4033
(dp4034
g54
(dp4035
g81
g82
ssg63
g4024
sg56
(lp4036
S':'
asbag49
(g70
g51
NtRp4037
(dp4038
g54
(dp4039
sg63
g4024
sg56
(lp4040
g49
(g50
g51
NtRp4041
(dp4042
g54
(dp4043
g62
I5
ssg63
g4037
sg56
(lp4044
g49
(g58
g51
NtRp4045
(dp4046
g54
(dp4047
g62
I4
ssg63
Nsg56
(lp4048
g49
(g65
g51
NtRp4049
(dp4050
g54
(dp4051
sg63
g4045
sg56
(lp4052
g49
(g70
g51
NtRp4053
(dp4054
g54
(dp4055
sg63
g4049
sg56
(lp4056
g49
(g50
g51
NtRp4057
(dp4058
g54
(dp4059
g62
I4
ssg63
g4053
sg56
(lp4060
S'{{'
p4061
asbasbasbag49
(g65
g51
NtRp4062
(dp4063
g54
(dp4064
sg63
g4045
sg56
(lp4065
g49
(g70
g51
NtRp4066
(dp4067
g54
(dp4068
sg63
g4062
sg56
(lp4069
g49
(g50
g51
NtRp4070
(dp4071
g54
(dp4072
g62
I4
ssg63
g4066
sg56
(lp4073
S'}}'
p4074
asbasbasbasbasbasbasbag49
(g65
g51
NtRp4075
(dp4076
g54
(dp4077
sg63
g3810
sg56
(lp4078
g49
(g70
g51
NtRp4079
(dp4080
g54
(dp4081
g74
g75
ssg63
g4075
sg56
(lp4082
S'files'
p4083
asbag49
(g70
g51
NtRp4084
(dp4085
g54
(dp4086
g81
g82
ssg63
g4075
sg56
(lp4087
S':'
asbag49
(g70
g51
NtRp4088
(dp4089
g54
(dp4090
sg63
g4075
sg56
(lp4091
g49
(g50
g51
NtRp4092
(dp4093
g54
(dp4094
g62
I5
ssg63
g4088
sg56
(lp4095
g49
(g58
g51
NtRp4096
(dp4097
g54
(dp4098
g62
I4
ssg63
Nsg56
(lp4099
sbasbasbasbag49
(g65
g51
NtRp4100
(dp4101
g54
(dp4102
sg63
g3810
sg56
(lp4103
g49
(g70
g51
NtRp4104
(dp4105
g54
(dp4106
g74
g75
ssg63
g4100
sg56
(lp4107
S'flash'
p4108
asbag49
(g70
g51
NtRp4109
(dp4110
g54
(dp4111
g81
g82
ssg63
g4100
sg56
(lp4112
S':'
asbag49
(g70
g51
NtRp4113
(dp4114
g54
(dp4115
sg63
g4100
sg56
(lp4116
g49
(g50
g51
NtRp4117
(dp4118
g54
(dp4119
g62
I5
ssg63
g4113
sg56
(lp4120
S''
asbasbasbag49
(g65
g51
NtRp4121
(dp4122
g54
(dp4123
sg63
g3810
sg56
(lp4124
g49
(g70
g51
NtRp4125
(dp4126
g54
(dp4127
g74
g75
ssg63
g4121
sg56
(lp4128
S'generic_patterns'
p4129
asbag49
(g70
g51
NtRp4130
(dp4131
g54
(dp4132
g81
g82
ssg63
g4121
sg56
(lp4133
S':'
asbag49
(g70
g51
NtRp4134
(dp4135
g54
(dp4136
sg63
g4121
sg56
(lp4137
g49
(g50
g51
NtRp4138
(dp4139
g54
(dp4140
g62
I5
ssg63
g4134
sg56
(lp4141
g49
(g58
g51
NtRp4142
(dp4143
g54
(dp4144
g62
I4
ssg63
Nsg56
(lp4145
g49
(g65
g51
NtRp4146
(dp4147
g54
(dp4148
sg63
g4142
sg56
(lp4149
g49
(g70
g51
NtRp4150
(dp4151
g54
(dp4152
sg63
g4146
sg56
(lp4153
g49
(g50
g51
NtRp4154
(dp4155
g54
(dp4156
g62
I4
ssg63
g4150
sg56
(lp4157
S'*'
asbasbasbasbasbasbasbag49
(g65
g51
NtRp4158
(dp4159
g54
(dp4160
sg63
g3810
sg56
(lp4161
g49
(g70
g51
NtRp4162
(dp4163
g54
(dp4164
g74
g75
ssg63
g4158
sg56
(lp4165
S'google_analytics_id'
p4166
asbag49
(g70
g51
NtRp4167
(dp4168
g54
(dp4169
g81
g82
ssg63
g4158
sg56
(lp4170
S':'
asbag49
(g70
g51
NtRp4171
(dp4172
g54
(dp4173
sg63
g4158
sg56
(lp4174
g49
(g50
g51
NtRp4175
(dp4176
g54
(dp4177
g62
I5
ssg63
g4171
sg56
(lp4178
S'None'
p4179
asbasbasbag49
(g65
g51
NtRp4180
(dp4181
g54
(dp4182
sg63
g3810
sg56
(lp4183
g49
(g70
g51
NtRp4184
(dp4185
g54
(dp4186
g74
g75
ssg63
g4180
sg56
(lp4187
S'headers'
p4188
asbag49
(g70
g51
NtRp4189
(dp4190
g54
(dp4191
g81
g82
ssg63
g4180
sg56
(lp4192
S':'
asbag49
(g70
g51
NtRp4193
(dp4194
g54
(dp4195
sg63
g4180
sg56
(lp4196
g49
(g50
g51
NtRp4197
(dp4198
g54
(dp4199
g62
I5
ssg63
g4193
sg56
(lp4200
g49
(g58
g51
NtRp4201
(dp4202
g54
(dp4203
g62
I4
ssg63
Nsg56
(lp4204
g49
(g65
g51
NtRp4205
(dp4206
g54
(dp4207
sg63
g4201
sg56
(lp4208
g49
(g70
g51
NtRp4209
(dp4210
g54
(dp4211
g74
g75
ssg63
g4205
sg56
(lp4212
S'X-Powered-By'
p4213
asbag49
(g70
g51
NtRp4214
(dp4215
g54
(dp4216
g81
g82
ssg63
g4205
sg56
(lp4217
S':'
asbag49
(g70
g51
NtRp4218
(dp4219
g54
(dp4220
sg63
g4205
sg56
(lp4221
g49
(g50
g51
NtRp4222
(dp4223
g54
(dp4224
g62
I4
ssg63
g4218
sg56
(lp4225
S'web2py'
p4226
asbasbasbasbasbasbasbag49
(g65
g51
NtRp4227
(dp4228
g54
(dp4229
sg63
g3810
sg56
(lp4230
g49
(g70
g51
NtRp4231
(dp4232
g54
(dp4233
g74
g75
ssg63
g4227
sg56
(lp4234
S'menu'
p4235
asbag49
(g70
g51
NtRp4236
(dp4237
g54
(dp4238
g81
g82
ssg63
g4227
sg56
(lp4239
S':'
asbag49
(g70
g51
NtRp4240
(dp4241
g54
(dp4242
sg63
g4227
sg56
(lp4243
g49
(g50
g51
NtRp4244
(dp4245
g54
(dp4246
g62
I5
ssg63
g4240
sg56
(lp4247
g49
(g58
g51
NtRp4248
(dp4249
g54
(dp4250
g62
I4
ssg63
Nsg56
(lp4251
g49
(g65
g51
NtRp4252
(dp4253
g54
(dp4254
sg63
g4248
sg56
(lp4255
g49
(g70
g51
NtRp4256
(dp4257
g54
(dp4258
sg63
g4252
sg56
(lp4259
g49
(g50
g51
NtRp4260
(dp4261
g54
(dp4262
g62
I4
ssg63
g4256
sg56
(lp4263
g49
(g58
g51
NtRp4264
(dp4265
g54
(dp4266
g62
I3
ssg63
Nsg56
(lp4267
g49
(g65
g51
NtRp4268
(dp4269
g54
(dp4270
sg63
g4264
sg56
(lp4271
g49
(g70
g51
NtRp4272
(dp4273
g54
(dp4274
sg63
g4268
sg56
(lp4275
g49
(g50
g51
NtRp4276
(dp4277
g54
(dp4278
g62
I3
ssg63
g4272
sg56
(lp4279
cgluon.languages
lazyT_unpickle
p4280
(S't\x04\x00\x00\x00Home'
tRp4281
asbasbasbag49
(g65
g51
NtRp4282
(dp4283
g54
(dp4284
sg63
g4264
sg56
(lp4285
g49
(g70
g51
NtRp4286
(dp4287
g54
(dp4288
sg63
g4282
sg56
(lp4289
g49
(g50
g51
NtRp4290
(dp4291
g54
(dp4292
g62
I3
ssg63
g4286
sg56
(lp4293
g92
asbasbasbag49
(g65
g51
NtRp4294
(dp4295
g54
(dp4296
sg63
g4264
sg56
(lp4297
g49
(g70
g51
NtRp4298
(dp4299
g54
(dp4300
sg63
g4294
sg56
(lp4301
g49
(g50
g51
NtRp4302
(dp4303
g54
(dp4304
g62
I3
ssg63
g4298
sg56
(lp4305
S'/183_Project/default/index'
p4306
asbasbasbag49
(g65
g51
NtRp4307
(dp4308
g54
(dp4309
sg63
g4264
sg56
(lp4310
g49
(g70
g51
NtRp4311
(dp4312
g54
(dp4313
sg63
g4307
sg56
(lp4314
g49
(g50
g51
NtRp4315
(dp4316
g54
(dp4317
g62
I3
ssg63
g4311
sg56
(lp4318
g49
(g58
g51
NtRp4319
(dp4320
g54
(dp4321
g62
I2
ssg63
Nsg56
(lp4322
sbasbasbasbasbasbasbasbag49
(g65
g51
NtRp4323
(dp4324
g54
(dp4325
sg63
g4248
sg56
(lp4326
g49
(g70
g51
NtRp4327
(dp4328
g54
(dp4329
sg63
g4323
sg56
(lp4330
g49
(g50
g51
NtRp4331
(dp4332
g54
(dp4333
g62
I4
ssg63
g4327
sg56
(lp4334
g49
(g58
g51
NtRp4335
(dp4336
g54
(dp4337
g62
I3
ssg63
Nsg56
(lp4338
g49
(g65
g51
NtRp4339
(dp4340
g54
(dp4341
sg63
g4335
sg56
(lp4342
g49
(g70
g51
NtRp4343
(dp4344
g54
(dp4345
sg63
g4339
sg56
(lp4346
g49
(g50
g51
NtRp4347
(dp4348
g54
(dp4349
g62
I3
ssg63
g4343
sg56
(lp4350
g49
(cgluon.html
SPAN
p4351
g51
NtRp4352
(dp4353
g54
(dp4354
g74
S'color:yellow'
p4355
ssg63
Nsg56
(lp4356
g4226
asbasbasbasbag49
(g65
g51
NtRp4357
(dp4358
g54
(dp4359
sg63
g4335
sg56
(lp4360
g49
(g70
g51
NtRp4361
(dp4362
g54
(dp4363
sg63
g4357
sg56
(lp4364
g49
(g50
g51
NtRp4365
(dp4366
g54
(dp4367
g62
I3
ssg63
g4361
sg56
(lp4368
g92
asbasbasbag49
(g65
g51
NtRp4369
(dp4370
g54
(dp4371
sg63
g4335
sg56
(lp4372
g49
(g70
g51
NtRp4373
(dp4374
g54
(dp4375
sg63
g4369
sg56
(lp4376
g49
(g50
g51
NtRp4377
(dp4378
g54
(dp4379
g62
I3
ssg63
g4373
sg56
(lp4380
S'http://web2py.com'
p4381
asbasbasbag49
(g65
g51
NtRp4382
(dp4383
g54
(dp4384
sg63
g4335
sg56
(lp4385
g49
(g70
g51
NtRp4386
(dp4387
g54
(dp4388
sg63
g4382
sg56
(lp4389
g49
(g50
g51
NtRp4390
(dp4391
g54
(dp4392
g62
I3
ssg63
g4386
sg56
(lp4393
g49
(g58
g51
NtRp4394
(dp4395
g54
(dp4396
g62
I2
ssg63
Nsg56
(lp4397
g49
(g65
g51
NtRp4398
(dp4399
g54
(dp4400
sg63
g4394
sg56
(lp4401
g49
(g70
g51
NtRp4402
(dp4403
g54
(dp4404
sg63
g4398
sg56
(lp4405
g49
(g50
g51
NtRp4406
(dp4407
g54
(dp4408
g62
I2
ssg63
g4402
sg56
(lp4409
g49
(g58
g51
NtRp4410
(dp4411
g54
(dp4412
g62
I1
ssg63
Nsg56
(lp4413
g49
(g65
g51
NtRp4414
(dp4415
g54
(dp4416
sg63
g4410
sg56
(lp4417
g49
(g70
g51
NtRp4418
(dp4419
g54
(dp4420
sg63
g4414
sg56
(lp4421
g49
(g50
g51
NtRp4422
(dp4423
g54
(dp4424
g62
I1
ssg63
g4418
sg56
(lp4425
g4280
(S's\x08\x00\x00\x00My Sites'
tRp4426
asbasbasbag49
(g65
g51
NtRp4427
(dp4428
g54
(dp4429
sg63
g4410
sg56
(lp4430
g49
(g70
g51
NtRp4431
(dp4432
g54
(dp4433
sg63
g4427
sg56
(lp4434
g49
(g50
g51
NtRp4435
(dp4436
g54
(dp4437
g62
I1
ssg63
g4431
sg56
(lp4438
I00
asbasbasbag49
(g65
g51
NtRp4439
(dp4440
g54
(dp4441
sg63
g4410
sg56
(lp4442
g49
(g70
g51
NtRp4443
(dp4444
g54
(dp4445
sg63
g4439
sg56
(lp4446
g49
(g50
g51
NtRp4447
(dp4448
g54
(dp4449
g62
I1
ssg63
g4443
sg56
(lp4450
S'/admin/default/site'
p4451
asbasbasbasbasbasbasbag49
(g65
g51
NtRp4452
(dp4453
g54
(dp4454
sg63
g4394
sg56
(lp4455
g49
(g70
g51
NtRp4456
(dp4457
g54
(dp4458
sg63
g4452
sg56
(lp4459
g49
(g50
g51
NtRp4460
(dp4461
g54
(dp4462
g62
I2
ssg63
g4456
sg56
(lp4463
g49
(g58
g51
NtRp4464
(dp4465
g54
(dp4466
g62
I1
ssg63
Nsg56
(lp4467
g49
(g65
g51
NtRp4468
(dp4469
g54
(dp4470
sg63
g4464
sg56
(lp4471
g49
(g70
g51
NtRp4472
(dp4473
g54
(dp4474
sg63
g4468
sg56
(lp4475
g49
(g50
g51
NtRp4476
(dp4477
g54
(dp4478
g62
I1
ssg63
g4472
sg56
(lp4479
g4280
(S's\x08\x00\x00\x00This App'
tRp4480
asbasbasbag49
(g65
g51
NtRp4481
(dp4482
g54
(dp4483
sg63
g4464
sg56
(lp4484
g49
(g70
g51
NtRp4485
(dp4486
g54
(dp4487
sg63
g4481
sg56
(lp4488
g49
(g50
g51
NtRp4489
(dp4490
g54
(dp4491
g62
I1
ssg63
g4485
sg56
(lp4492
I00
asbasbasbag49
(g65
g51
NtRp4493
(dp4494
g54
(dp4495
sg63
g4464
sg56
(lp4496
g49
(g70
g51
NtRp4497
(dp4498
g54
(dp4499
sg63
g4493
sg56
(lp4500
g49
(g50
g51
NtRp4501
(dp4502
g54
(dp4503
g62
I1
ssg63
g4497
sg56
(lp4504
S'/admin/default/design/183_Project'
p4505
asbasbasbag49
(g65
g51
NtRp4506
(dp4507
g54
(dp4508
sg63
g4464
sg56
(lp4509
g49
(g70
g51
NtRp4510
(dp4511
g54
(dp4512
sg63
g4506
sg56
(lp4513
g49
(g50
g51
NtRp4514
(dp4515
g54
(dp4516
g62
I1
ssg63
g4510
sg56
(lp4517
(lp4518
(g4280
(S't\n\x00\x00\x00Controller'
tRp4519
I00
S'/admin/default/edit/183_Project/controllers/default.py'
tp4520
a(g4280
(S't\x04\x00\x00\x00View'
tRp4521
I00
S'/admin/default/edit/183_Project/views/default/edit.html'
tp4522
a(g4280
(S't\x06\x00\x00\x00Layout'
tRp4523
I00
S'/admin/default/edit/183_Project/views/layout.html'
tp4524
a(g4280
(S't\n\x00\x00\x00Stylesheet'
tRp4525
I00
S'/admin/default/edit/183_Project/static/css/web2py.css'
tp4526
a(g4280
(S's\x08\x00\x00\x00DB Model'
tRp4527
I00
S'/admin/default/edit/183_Project/models/db.py'
tp4528
a(g4280
(S's\n\x00\x00\x00Menu Model'
tRp4529
I00
S'/admin/default/edit/183_Project/models/menu.py'
tp4530
a(g4280
(S't\x08\x00\x00\x00Database'
tRp4531
I00
S'/183_Project/appadmin/index'
tp4532
a(g4280
(S't\x06\x00\x00\x00Errors'
tRp4533
I00
S'/admin/default/errors/183_Project'
tp4534
a(g4280
(S't\x05\x00\x00\x00About'
tRp4535
I00
S'/admin/default/about/183_Project'
tp4536
aasbasbasbasbasbasbasbag49
(g65
g51
NtRp4537
(dp4538
g54
(dp4539
sg63
g4394
sg56
(lp4540
g49
(g70
g51
NtRp4541
(dp4542
g54
(dp4543
sg63
g4537
sg56
(lp4544
g49
(g50
g51
NtRp4545
(dp4546
g54
(dp4547
g62
I2
ssg63
g4541
sg56
(lp4548
g49
(g58
g51
NtRp4549
(dp4550
g54
(dp4551
g62
I1
ssg63
Nsg56
(lp4552
g49
(g65
g51
NtRp4553
(dp4554
g54
(dp4555
sg63
g4549
sg56
(lp4556
g49
(g70
g51
NtRp4557
(dp4558
g54
(dp4559
sg63
g4553
sg56
(lp4560
g49
(g50
g51
NtRp4561
(dp4562
g54
(dp4563
g62
I1
ssg63
g4557
sg56
(lp4564
S'web2py.com'
p4565
asbasbasbag49
(g65
g51
NtRp4566
(dp4567
g54
(dp4568
sg63
g4549
sg56
(lp4569
g49
(g70
g51
NtRp4570
(dp4571
g54
(dp4572
sg63
g4566
sg56
(lp4573
g49
(g50
g51
NtRp4574
(dp4575
g54
(dp4576
g62
I1
ssg63
g4570
sg56
(lp4577
I00
asbasbasbag49
(g65
g51
NtRp4578
(dp4579
g54
(dp4580
sg63
g4549
sg56
(lp4581
g49
(g70
g51
NtRp4582
(dp4583
g54
(dp4584
sg63
g4578
sg56
(lp4585
g49
(g50
g51
NtRp4586
(dp4587
g54
(dp4588
g62
I1
ssg63
g4582
sg56
(lp4589
S'http://www.web2py.com'
p4590
asbasbasbag49
(g65
g51
NtRp4591
(dp4592
g54
(dp4593
sg63
g4549
sg56
(lp4594
g49
(g70
g51
NtRp4595
(dp4596
g54
(dp4597
sg63
g4591
sg56
(lp4598
g49
(g50
g51
NtRp4599
(dp4600
g54
(dp4601
g62
I1
ssg63
g4595
sg56
(lp4602
(lp4603
(g4280
(S't\x08\x00\x00\x00Download'
tRp4604
I00
S'http://www.web2py.com/examples/default/download'
p4605
tp4606
a(g4280
(S't\x07\x00\x00\x00Support'
tRp4607
I00
S'http://www.web2py.com/examples/default/support'
p4608
tp4609
a(g4280
(S't\x04\x00\x00\x00Demo'
tRp4610
I00
S'http://web2py.com/demo_admin'
p4611
tp4612
a(g4280
(S's\x0e\x00\x00\x00Quick Examples'
tRp4613
I00
S'http://web2py.com/examples/default/examples'
p4614
tp4615
a(g4280
(S't\x03\x00\x00\x00FAQ'
tRp4616
I00
S'http://web2py.com/AlterEgo'
p4617
tp4618
a(g4280
(S't\x06\x00\x00\x00Videos'
tRp4619
I00
S'http://www.web2py.com/examples/default/videos/'
p4620
tp4621
a(g4280
(S's\x11\x00\x00\x00Free Applications'
tRp4622
I00
S'http://web2py.com/appliances'
p4623
tp4624
a(g4280
(S't\x07\x00\x00\x00Plugins'
tRp4625
I00
S'http://web2py.com/plugins'
p4626
tp4627
a(g4280
(S't\x07\x00\x00\x00Layouts'
tRp4628
I00
S'http://web2py.com/layouts'
p4629
tp4630
a(g4280
(S't\x07\x00\x00\x00Recipes'
tRp4631
I00
S'http://web2pyslices.com/'
p4632
tp4633
a(g4280
(S't\x08\x00\x00\x00Semantic'
tRp4634
I00
S'http://web2py.com/semantic'
p4635
tp4636
aasbasbasbasbasbasbasbag49
(g65
g51
NtRp4637
(dp4638
g54
(dp4639
sg63
g4394
sg56
(lp4640
g49
(g70
g51
NtRp4641
(dp4642
g54
(dp4643
sg63
g4637
sg56
(lp4644
g49
(g50
g51
NtRp4645
(dp4646
g54
(dp4647
g62
I2
ssg63
g4641
sg56
(lp4648
g49
(g58
g51
NtRp4649
(dp4650
g54
(dp4651
g62
I1
ssg63
Nsg56
(lp4652
g49
(g65
g51
NtRp4653
(dp4654
g54
(dp4655
sg63
g4649
sg56
(lp4656
g49
(g70
g51
NtRp4657
(dp4658
g54
(dp4659
sg63
g4653
sg56
(lp4660
g49
(g50
g51
NtRp4661
(dp4662
g54
(dp4663
g62
I1
ssg63
g4657
sg56
(lp4664
g4280
(S't\r\x00\x00\x00Documentation'
tRp4665
asbasbasbag49
(g65
g51
NtRp4666
(dp4667
g54
(dp4668
sg63
g4649
sg56
(lp4669
g49
(g70
g51
NtRp4670
(dp4671
g54
(dp4672
sg63
g4666
sg56
(lp4673
g49
(g50
g51
NtRp4674
(dp4675
g54
(dp4676
g62
I1
ssg63
g4670
sg56
(lp4677
I00
asbasbasbag49
(g65
g51
NtRp4678
(dp4679
g54
(dp4680
sg63
g4649
sg56
(lp4681
g49
(g70
g51
NtRp4682
(dp4683
g54
(dp4684
sg63
g4678
sg56
(lp4685
g49
(g50
g51
NtRp4686
(dp4687
g54
(dp4688
g62
I1
ssg63
g4682
sg56
(lp4689
S'http://www.web2py.com/book'
p4690
asbasbasbag49
(g65
g51
NtRp4691
(dp4692
g54
(dp4693
sg63
g4649
sg56
(lp4694
g49
(g70
g51
NtRp4695
(dp4696
g54
(dp4697
sg63
g4691
sg56
(lp4698
g49
(g50
g51
NtRp4699
(dp4700
g54
(dp4701
g62
I1
ssg63
g4695
sg56
(lp4702
(lp4703
(g4280
(S't\x07\x00\x00\x00Preface'
tRp4704
I00
S'http://www.web2py.com/book/default/chapter/00'
p4705
tp4706
a(g4280
(S't\x0c\x00\x00\x00Introduction'
tRp4707
I00
S'http://www.web2py.com/book/default/chapter/01'
p4708
tp4709
a(g4280
(S't\x06\x00\x00\x00Python'
tRp4710
I00
S'http://www.web2py.com/book/default/chapter/02'
p4711
tp4712
a(g4280
(S't\x08\x00\x00\x00Overview'
tRp4713
I00
S'http://www.web2py.com/book/default/chapter/03'
p4714
tp4715
a(g4280
(S's\x08\x00\x00\x00The Core'
tRp4716
I00
S'http://www.web2py.com/book/default/chapter/04'
p4717
tp4718
a(g4280
(S's\t\x00\x00\x00The Views'
tRp4719
I00
S'http://www.web2py.com/book/default/chapter/05'
p4720
tp4721
a(g4280
(S't\x08\x00\x00\x00Database'
tRp4722
I00
S'http://www.web2py.com/book/default/chapter/06'
p4723
tp4724
a(g4280
(S's\x14\x00\x00\x00Forms and Validators'
tRp4725
I00
S'http://www.web2py.com/book/default/chapter/07'
p4726
tp4727
a(g4280
(S's\r\x00\x00\x00Email and SMS'
tRp4728
I00
S'http://www.web2py.com/book/default/chapter/08'
p4729
tp4730
a(g4280
(S's\x0e\x00\x00\x00Access Control'
tRp4731
I00
S'http://www.web2py.com/book/default/chapter/09'
p4732
tp4733
a(g4280
(S't\x08\x00\x00\x00Services'
tRp4734
I00
S'http://www.web2py.com/book/default/chapter/10'
p4735
tp4736
a(g4280
(S's\x0c\x00\x00\x00Ajax Recipes'
tRp4737
I00
S'http://www.web2py.com/book/default/chapter/11'
p4738
tp4739
a(g4280
(S's\x16\x00\x00\x00Components and Plugins'
tRp4740
I00
S'http://www.web2py.com/book/default/chapter/12'
p4741
tp4742
a(g4280
(S's\x12\x00\x00\x00Deployment Recipes'
tRp4743
I00
S'http://www.web2py.com/book/default/chapter/13'
p4744
tp4745
a(g4280
(S's\r\x00\x00\x00Other Recipes'
tRp4746
I00
S'http://www.web2py.com/book/default/chapter/14'
p4747
tp4748
a(g4280
(S's\r\x00\x00\x00Buy this book'
tRp4749
I00
S'http://stores.lulu.com/web2py'
p4750
tp4751
aasbasbasbasbasbasbasbag49
(g65
g51
NtRp4752
(dp4753
g54
(dp4754
sg63
g4394
sg56
(lp4755
g49
(g70
g51
NtRp4756
(dp4757
g54
(dp4758
sg63
g4752
sg56
(lp4759
g49
(g50
g51
NtRp4760
(dp4761
g54
(dp4762
g62
I2
ssg63
g4756
sg56
(lp4763
g49
(g58
g51
NtRp4764
(dp4765
g54
(dp4766
g62
I1
ssg63
Nsg56
(lp4767
g49
(g65
g51
NtRp4768
(dp4769
g54
(dp4770
sg63
g4764
sg56
(lp4771
g49
(g70
g51
NtRp4772
(dp4773
g54
(dp4774
sg63
g4768
sg56
(lp4775
g49
(g50
g51
NtRp4776
(dp4777
g54
(dp4778
g62
I1
ssg63
g4772
sg56
(lp4779
g4280
(S't\t\x00\x00\x00Community'
tRp4780
asbasbasbag49
(g65
g51
NtRp4781
(dp4782
g54
(dp4783
sg63
g4764
sg56
(lp4784
g49
(g70
g51
NtRp4785
(dp4786
g54
(dp4787
sg63
g4781
sg56
(lp4788
g49
(g50
g51
NtRp4789
(dp4790
g54
(dp4791
g62
I1
ssg63
g4785
sg56
(lp4792
I00
asbasbasbag49
(g65
g51
NtRp4793
(dp4794
g54
(dp4795
sg63
g4764
sg56
(lp4796
g49
(g70
g51
NtRp4797
(dp4798
g54
(dp4799
sg63
g4793
sg56
(lp4800
g49
(g50
g51
NtRp4801
(dp4802
g54
(dp4803
g62
I1
ssg63
g4797
sg56
(lp4804
Nasbasbasbag49
(g65
g51
NtRp4805
(dp4806
g54
(dp4807
sg63
g4764
sg56
(lp4808
g49
(g70
g51
NtRp4809
(dp4810
g54
(dp4811
sg63
g4805
sg56
(lp4812
g49
(g50
g51
NtRp4813
(dp4814
g54
(dp4815
g62
I1
ssg63
g4809
sg56
(lp4816
(lp4817
(g4280
(S't\x06\x00\x00\x00Groups'
tRp4818
I00
S'http://www.web2py.com/examples/default/usergroups'
p4819
tp4820
a(g4280
(S't\x07\x00\x00\x00Twitter'
tRp4821
I00
S'http://twitter.com/web2py'
p4822
tp4823
a(g4280
(S's\t\x00\x00\x00Live Chat'
tRp4824
I00
S'http://webchat.freenode.net/?channels=web2py'
p4825
tp4826
aasbasbasbasbasbasbasbag49
(g65
g51
NtRp4827
(dp4828
g54
(dp4829
sg63
g4394
sg56
(lp4830
g49
(g70
g51
NtRp4831
(dp4832
g54
(dp4833
sg63
g4827
sg56
(lp4834
g49
(g50
g51
NtRp4835
(dp4836
g54
(dp4837
g62
I2
ssg63
g4831
sg56
(lp4838
g49
(g58
g51
NtRp4839
(dp4840
g54
(dp4841
g62
I1
ssg63
Nsg56
(lp4842
g49
(g65
g51
NtRp4843
(dp4844
g54
(dp4845
sg63
g4839
sg56
(lp4846
g49
(g70
g51
NtRp4847
(dp4848
g54
(dp4849
sg63
g4843
sg56
(lp4850
g49
(g50
g51
NtRp4851
(dp4852
g54
(dp4853
g62
I1
ssg63
g4847
sg56
(lp4854
g4280
(S't\x07\x00\x00\x00Plugins'
tRp4855
asbasbasbag49
(g65
g51
NtRp4856
(dp4857
g54
(dp4858
sg63
g4839
sg56
(lp4859
g49
(g70
g51
NtRp4860
(dp4861
g54
(dp4862
sg63
g4856
sg56
(lp4863
g49
(g50
g51
NtRp4864
(dp4865
g54
(dp4866
g62
I1
ssg63
g4860
sg56
(lp4867
I00
asbasbasbag49
(g65
g51
NtRp4868
(dp4869
g54
(dp4870
sg63
g4839
sg56
(lp4871
g49
(g70
g51
NtRp4872
(dp4873
g54
(dp4874
sg63
g4868
sg56
(lp4875
g49
(g50
g51
NtRp4876
(dp4877
g54
(dp4878
g62
I1
ssg63
g4872
sg56
(lp4879
Nasbasbasbag49
(g65
g51
NtRp4880
(dp4881
g54
(dp4882
sg63
g4839
sg56
(lp4883
g49
(g70
g51
NtRp4884
(dp4885
g54
(dp4886
sg63
g4880
sg56
(lp4887
g49
(g50
g51
NtRp4888
(dp4889
g54
(dp4890
g62
I1
ssg63
g4884
sg56
(lp4891
(lp4892
(S'plugin_wiki'
p4893
I00
S'http://web2py.com/examples/default/download'
p4894
tp4895
a(g4280
(S's\r\x00\x00\x00Other Plugins'
tRp4896
I00
g4626
tp4897
a(g4280
(S's\x0e\x00\x00\x00Layout Plugins'
tRp4898
I00
g4629
tp4899
aasbasbasbasbasbasbasbasbasbasbasbasbasbasbasbasbasbasbasbag49
(g65
g51
NtRp4900
(dp4901
g54
(dp4902
sg63
g3810
sg56
(lp4903
g49
(g70
g51
NtRp4904
(dp4905
g54
(dp4906
g74
g75
ssg63
g4900
sg56
(lp4907
S'meta'
p4908
asbag49
(g70
g51
NtRp4909
(dp4910
g54
(dp4911
g81
g82
ssg63
g4900
sg56
(lp4912
S':'
asbag49
(g70
g51
NtRp4913
(dp4914
g54
(dp4915
sg63
g4900
sg56
(lp4916
g49
(g50
g51
NtRp4917
(dp4918
g54
(dp4919
g62
I5
ssg63
g4913
sg56
(lp4920
g49
(g58
g51
NtRp4921
(dp4922
g54
(dp4923
g62
I4
ssg63
Nsg56
(lp4924
g49
(g65
g51
NtRp4925
(dp4926
g54
(dp4927
sg63
g4921
sg56
(lp4928
g49
(g70
g51
NtRp4929
(dp4930
g54
(dp4931
g74
g75
ssg63
g4925
sg56
(lp4932
S'author'
p4933
asbag49
(g70
g51
NtRp4934
(dp4935
g54
(dp4936
g81
g82
ssg63
g4925
sg56
(lp4937
S':'
asbag49
(g70
g51
NtRp4938
(dp4939
g54
(dp4940
sg63
g4925
sg56
(lp4941
g49
(g50
g51
NtRp4942
(dp4943
g54
(dp4944
g62
I4
ssg63
g4938
sg56
(lp4945
S'Your Name <you@example.com>'
p4946
asbasbasbag49
(g65
g51
NtRp4947
(dp4948
g54
(dp4949
sg63
g4921
sg56
(lp4950
g49
(g70
g51
NtRp4951
(dp4952
g54
(dp4953
g74
g75
ssg63
g4947
sg56
(lp4954
S'description'
p4955
asbag49
(g70
g51
NtRp4956
(dp4957
g54
(dp4958
g81
g82
ssg63
g4947
sg56
(lp4959
S':'
asbag49
(g70
g51
NtRp4960
(dp4961
g54
(dp4962
sg63
g4947
sg56
(lp4963
g49
(g50
g51
NtRp4964
(dp4965
g54
(dp4966
g62
I4
ssg63
g4960
sg56
(lp4967
S'a cool new app'
p4968
asbasbasbag49
(g65
g51
NtRp4969
(dp4970
g54
(dp4971
sg63
g4921
sg56
(lp4972
g49
(g70
g51
NtRp4973
(dp4974
g54
(dp4975
g74
g75
ssg63
g4969
sg56
(lp4976
S'generator'
p4977
asbag49
(g70
g51
NtRp4978
(dp4979
g54
(dp4980
g81
g82
ssg63
g4969
sg56
(lp4981
S':'
asbag49
(g70
g51
NtRp4982
(dp4983
g54
(dp4984
sg63
g4969
sg56
(lp4985
g49
(g50
g51
NtRp4986
(dp4987
g54
(dp4988
g62
I4
ssg63
g4982
sg56
(lp4989
S'Web2py Web Framework'
p4990
asbasbasbag49
(g65
g51
NtRp4991
(dp4992
g54
(dp4993
sg63
g4921
sg56
(lp4994
g49
(g70
g51
NtRp4995
(dp4996
g54
(dp4997
g74
g75
ssg63
g4991
sg56
(lp4998
S'keywords'
p4999
asbag49
(g70
g51
NtRp5000
(dp5001
g54
(dp5002
g81
g82
ssg63
g4991
sg56
(lp5003
S':'
asbag49
(g70
g51
NtRp5004
(dp5005
g54
(dp5006
sg63
g4991
sg56
(lp5007
g49
(g50
g51
NtRp5008
(dp5009
g54
(dp5010
g62
I4
ssg63
g5004
sg56
(lp5011
S'web2py, python, framework'
p5012
asbasbasbasbasbasbasbag49
(g65
g51
NtRp5013
(dp5014
g54
(dp5015
sg63
g3810
sg56
(lp5016
g49
(g70
g51
NtRp5017
(dp5018
g54
(dp5019
g74
g75
ssg63
g5013
sg56
(lp5020
S'models_to_run'
p5021
asbag49
(g70
g51
NtRp5022
(dp5023
g54
(dp5024
g81
g82
ssg63
g5013
sg56
(lp5025
S':'
asbag49
(g70
g51
NtRp5026
(dp5027
g54
(dp5028
sg63
g5013
sg56
(lp5029
g49
(g50
g51
NtRp5030
(dp5031
g54
(dp5032
g62
I5
ssg63
g5026
sg56
(lp5033
g49
(g58
g51
NtRp5034
(dp5035
g54
(dp5036
g62
I4
ssg63
Nsg56
(lp5037
g49
(g65
g51
NtRp5038
(dp5039
g54
(dp5040
sg63
g5034
sg56
(lp5041
g49
(g70
g51
NtRp5042
(dp5043
g54
(dp5044
sg63
g5038
sg56
(lp5045
g49
(g50
g51
NtRp5046
(dp5047
g54
(dp5048
g62
I4
ssg63
g5042
sg56
(lp5049
S'^\\w+\\.py$'
p5050
asbasbasbag49
(g65
g51
NtRp5051
(dp5052
g54
(dp5053
sg63
g5034
sg56
(lp5054
g49
(g70
g51
NtRp5055
(dp5056
g54
(dp5057
sg63
g5051
sg56
(lp5058
g49
(g50
g51
NtRp5059
(dp5060
g54
(dp5061
g62
I4
ssg63
g5055
sg56
(lp5062
S'^default/\\w+\\.py$'
p5063
asbasbasbag49
(g65
g51
NtRp5064
(dp5065
g54
(dp5066
sg63
g5034
sg56
(lp5067
g49
(g70
g51
NtRp5068
(dp5069
g54
(dp5070
sg63
g5064
sg56
(lp5071
g49
(g50
g51
NtRp5072
(dp5073
g54
(dp5074
g62
I4
ssg63
g5068
sg56
(lp5075
S'^default/edit/\\w+\\.py$'
p5076
asbasbasbasbasbasbasbag49
(g65
g51
NtRp5077
(dp5078
g54
(dp5079
sg63
g3810
sg56
(lp5080
g49
(g70
g51
NtRp5081
(dp5082
g54
(dp5083
g74
g75
ssg63
g5077
sg56
(lp5084
S'postprocessing'
p5085
asbag49
(g70
g51
NtRp5086
(dp5087
g54
(dp5088
g81
g82
ssg63
g5077
sg56
(lp5089
S':'
asbag49
(g70
g51
NtRp5090
(dp5091
g54
(dp5092
sg63
g5077
sg56
(lp5093
g49
(g50
g51
NtRp5094
(dp5095
g54
(dp5096
g62
I5
ssg63
g5090
sg56
(lp5097
g49
(g58
g51
NtRp5098
(dp5099
g54
(dp5100
g62
I4
ssg63
Nsg56
(lp5101
sbasbasbasbag49
(g65
g51
NtRp5102
(dp5103
g54
(dp5104
sg63
g3810
sg56
(lp5105
g49
(g70
g51
NtRp5106
(dp5107
g54
(dp5108
g74
g75
ssg63
g5102
sg56
(lp5109
S'session_file'
p5110
asbag49
(g70
g51
NtRp5111
(dp5112
g54
(dp5113
g81
g82
ssg63
g5102
sg56
(lp5114
S':'
asbag49
(g70
g51
NtRp5115
(dp5116
g54
(dp5117
sg63
g5102
sg56
(lp5118
g49
(g50
g51
NtRp5119
(dp5120
g54
(dp5121
g62
I5
ssg63
g5115
sg56
(lp5122
S"<open file '/Applications/web2py.app/Contents/Resources/applications/183_Project/sessions/127.0.0.1-c8abb2ee-6092-4cbf-9634-5374f4190b06', mode 'rb+' at 0xa2b0260>"
p5123
asbasbasbag49
(g65
g51
NtRp5124
(dp5125
g54
(dp5126
sg63
g3810
sg56
(lp5127
g49
(g70
g51
NtRp5128
(dp5129
g54
(dp5130
g74
g75
ssg63
g5124
sg56
(lp5131
S'session_filename'
p5132
asbag49
(g70
g51
NtRp5133
(dp5134
g54
(dp5135
g81
g82
ssg63
g5124
sg56
(lp5136
S':'
asbag49
(g70
g51
NtRp5137
(dp5138
g54
(dp5139
sg63
g5124
sg56
(lp5140
g49
(g50
g51
NtRp5141
(dp5142
g54
(dp5143
g62
I5
ssg63
g5137
sg56
(lp5144
S'/Applications/web2py.app/Contents/Resources/applications/183_Project/sessions/127.0.0.1-c8abb2ee-6092-4cbf-9634-5374f4190b06'
p5145
asbasbasbag49
(g65
g51
NtRp5146
(dp5147
g54
(dp5148
sg63
g3810
sg56
(lp5149
g49
(g70
g51
NtRp5150
(dp5151
g54
(dp5152
g74
g75
ssg63
g5146
sg56
(lp5153
S'session_id'
p5154
asbag49
(g70
g51
NtRp5155
(dp5156
g54
(dp5157
g81
g82
ssg63
g5146
sg56
(lp5158
S':'
asbag49
(g70
g51
NtRp5159
(dp5160
g54
(dp5161
sg63
g5146
sg56
(lp5162
g49
(g50
g51
NtRp5163
(dp5164
g54
(dp5165
g62
I5
ssg63
g5159
sg56
(lp5166
g273
asbasbasbag49
(g65
g51
NtRp5167
(dp5168
g54
(dp5169
sg63
g3810
sg56
(lp5170
g49
(g70
g51
NtRp5171
(dp5172
g54
(dp5173
g74
g75
ssg63
g5167
sg56
(lp5174
S'session_id_name'
p5175
asbag49
(g70
g51
NtRp5176
(dp5177
g54
(dp5178
g81
g82
ssg63
g5167
sg56
(lp5179
S':'
asbag49
(g70
g51
NtRp5180
(dp5181
g54
(dp5182
sg63
g5167
sg56
(lp5183
g49
(g50
g51
NtRp5184
(dp5185
g54
(dp5186
g62
I5
ssg63
g5180
sg56
(lp5187
g3867
asbasbasbag49
(g65
g51
NtRp5188
(dp5189
g54
(dp5190
sg63
g3810
sg56
(lp5191
g49
(g70
g51
NtRp5192
(dp5193
g54
(dp5194
g74
g75
ssg63
g5188
sg56
(lp5195
S'session_locked'
p5196
asbag49
(g70
g51
NtRp5197
(dp5198
g54
(dp5199
g81
g82
ssg63
g5188
sg56
(lp5200
S':'
asbag49
(g70
g51
NtRp5201
(dp5202
g54
(dp5203
sg63
g5188
sg56
(lp5204
g49
(g50
g51
NtRp5205
(dp5206
g54
(dp5207
g62
I5
ssg63
g5201
sg56
(lp5208
g1986
asbasbasbag49
(g65
g51
NtRp5209
(dp5210
g54
(dp5211
sg63
g3810
sg56
(lp5212
g49
(g70
g51
NtRp5213
(dp5214
g54
(dp5215
g74
g75
ssg63
g5209
sg56
(lp5216
S'session_new'
p5217
asbag49
(g70
g51
NtRp5218
(dp5219
g54
(dp5220
g81
g82
ssg63
g5209
sg56
(lp5221
S':'
asbag49
(g70
g51
NtRp5222
(dp5223
g54
(dp5224
sg63
g5209
sg56
(lp5225
g49
(g50
g51
NtRp5226
(dp5227
g54
(dp5228
g62
I5
ssg63
g5222
sg56
(lp5229
g92
asbasbasbag49
(g65
g51
NtRp5230
(dp5231
g54
(dp5232
sg63
g3810
sg56
(lp5233
g49
(g70
g51
NtRp5234
(dp5235
g54
(dp5236
g74
g75
ssg63
g5230
sg56
(lp5237
S'status'
p5238
asbag49
(g70
g51
NtRp5239
(dp5240
g54
(dp5241
g81
g82
ssg63
g5230
sg56
(lp5242
S':'
asbag49
(g70
g51
NtRp5243
(dp5244
g54
(dp5245
sg63
g5230
sg56
(lp5246
g49
(g50
g51
NtRp5247
(dp5248
g54
(dp5249
g62
I5
ssg63
g5243
sg56
(lp5250
S'200'
p5251
asbasbasbag49
(g65
g51
NtRp5252
(dp5253
g54
(dp5254
sg63
g3810
sg56
(lp5255
g49
(g70
g51
NtRp5256
(dp5257
g54
(dp5258
g74
g75
ssg63
g5252
sg56
(lp5259
S'subtitle'
p5260
asbag49
(g70
g51
NtRp5261
(dp5262
g54
(dp5263
g81
g82
ssg63
g5252
sg56
(lp5264
S':'
asbag49
(g70
g51
NtRp5265
(dp5266
g54
(dp5267
sg63
g5252
sg56
(lp5268
g49
(g50
g51
NtRp5269
(dp5270
g54
(dp5271
g62
I5
ssg63
g5265
sg56
(lp5272
g4280
(S's\r\x00\x00\x00customize me!'
tRp5273
asbasbasbag49
(g65
g51
NtRp5274
(dp5275
g54
(dp5276
sg63
g3810
sg56
(lp5277
g49
(g70
g51
NtRp5278
(dp5279
g54
(dp5280
g74
g75
ssg63
g5274
sg56
(lp5281
S'title'
p5282
asbag49
(g70
g51
NtRp5283
(dp5284
g54
(dp5285
g81
g82
ssg63
g5274
sg56
(lp5286
S':'
asbag49
(g70
g51
NtRp5287
(dp5288
g54
(dp5289
sg63
g5274
sg56
(lp5290
g49
(g50
g51
NtRp5291
(dp5292
g54
(dp5293
g62
I5
ssg63
g5287
sg56
(lp5294
S'183 Project'
p5295
asbasbasbag49
(g65
g51
NtRp5296
(dp5297
g54
(dp5298
sg63
g3810
sg56
(lp5299
g49
(g70
g51
NtRp5300
(dp5301
g54
(dp5302
g74
g75
ssg63
g5296
sg56
(lp5303
S'view'
p5304
asbag49
(g70
g51
NtRp5305
(dp5306
g54
(dp5307
g81
g82
ssg63
g5296
sg56
(lp5308
S':'
asbag49
(g70
g51
NtRp5309
(dp5310
g54
(dp5311
sg63
g5296
sg56
(lp5312
g49
(g50
g51
NtRp5313
(dp5314
g54
(dp5315
g62
I5
ssg63
g5309
sg56
(lp5316
S'default/edit.html'
p5317
asbasbasbasbasbsS'locals'
p5318
(dp5319
S'self'
p5320
S'<DAL sqlite://storage.sqlite>'
p5321
sS'key'
p5322
S"'notes'"
p5323
sssS'traceback'
p5324
S'Traceback (most recent call last):\n  File "gluon/restricted.py", line 209, in restricted\n  File "/Applications/web2py.app/Contents/Resources/applications/183_Project/controllers/default.py", line 87, in <module>\n  File "gluon/globals.py", line 186, in <lambda>\n  File "gluon/tools.py", line 2809, in f\n  File "/Applications/web2py.app/Contents/Resources/applications/183_Project/controllers/default.py", line 29, in edit\n  File "gluon/dal.py", line 7153, in __getattr__\nAttributeError: \'DAL\' object has no attribute \'notes\'\n'
p5325
s.