(dp1
S'output'
p2
S"<type 'exceptions.NameError'> name 'db' is not defined"
p3
sS'layer'
p4
S'/Applications/web2py.app/Contents/Resources/applications/183_Project/models/clinic.py'
p5
sS'code'
p6
S"db.define_table('clinics',\n    Field('user', db.auth_user, default=auth.user_id),\n    Field('name', 'string', required=True),\n    Field('image', 'upload'),\n    Field('email', 'string'),\n    Field('phone', 'string'),\n    Field('address', 'string'),\n    Field('description', 'text'),\n    format='%(name)s'\n    )\n    \ndb.clinic.email.requires = IS_EMAIL()\ndb.clinic.phone.requires = IS_SLUG(maxlen=12, check=True, error_message='Must be valid phone number (of form xxx-xxx-xxxx)')\n"
p7
sS'snapshot'
p8
(dp9
S'exception'
p10
(dp11
S'__hash__'
p12
S"<method-wrapper '__hash__' of exceptions.NameError object at 0xa626418>"
p13
sS'__setattr__'
p14
S"<method-wrapper '__setattr__' of exceptions.NameError object at 0xa626418>"
p15
sS'__reduce_ex__'
p16
S'<built-in method __reduce_ex__ of exceptions.NameError object at 0xa626418>'
p17
sS'__getslice__'
p18
S"<method-wrapper '__getslice__' of exceptions.NameError object at 0xa626418>"
p19
sS'__getitem__'
p20
S"<method-wrapper '__getitem__' of exceptions.NameError object at 0xa626418>"
p21
sS'__setstate__'
p22
S'<built-in method __setstate__ of exceptions.NameError object at 0xa626418>'
p23
sS'__reduce__'
p24
S'<built-in method __reduce__ of exceptions.NameError object at 0xa626418>'
p25
sS'__str__'
p26
S"<method-wrapper '__str__' of exceptions.NameError object at 0xa626418>"
p27
sS'args'
p28
S'("name \'db\' is not defined",)'
p29
sS'__getattribute__'
p30
S"<method-wrapper '__getattribute__' of exceptions.NameError object at 0xa626418>"
p31
sS'__class__'
p32
S"<type 'exceptions.NameError'>"
p33
sS'__delattr__'
p34
S"<method-wrapper '__delattr__' of exceptions.NameError object at 0xa626418>"
p35
sS'__repr__'
p36
S"<method-wrapper '__repr__' of exceptions.NameError object at 0xa626418>"
p37
sS'__dict__'
p38
S'{}'
p39
sS'__doc__'
p40
S"'Name not found globally.'"
p41
sS'__init__'
p42
S"<method-wrapper '__init__' of exceptions.NameError object at 0xa626418>"
p43
sS'__new__'
p44
S'<built-in method __new__ of type object at 0x24f9640>'
p45
ssS'evalue'
p46
S"name 'db' is not defined"
p47
sS'request'
p48
ccopy_reg
_reconstructor
p49
(cgluon.html
BEAUTIFY
p50
c__builtin__
object
p51
NtRp52
(dp53
S'attributes'
p54
(dp55
sS'components'
p56
(lp57
g49
(cgluon.html
TABLE
p58
g51
NtRp59
(dp60
g54
(dp61
S'level'
p62
I5
ssS'parent'
p63
Nsg56
(lp64
g49
(cgluon.html
TR
p65
g51
NtRp66
(dp67
g54
(dp68
sg63
g59
sg56
(lp69
g49
(cgluon.html
TD
p70
g51
NtRp71
(dp72
g54
(dp73
S'_style'
p74
S'font-weight:bold;vertical-align:top'
p75
ssg63
g66
sg56
(lp76
S'ajax'
p77
asbag49
(g70
g51
NtRp78
(dp79
g54
(dp80
S'_valign'
p81
S'top'
p82
ssg63
g66
sg56
(lp83
S':'
asbag49
(g70
g51
NtRp84
(dp85
g54
(dp86
sg63
g66
sg56
(lp87
g49
(g50
g51
NtRp88
(dp89
g54
(dp90
g62
I5
ssg63
g84
sg56
(lp91
S'False'
p92
asbasbasbag49
(g65
g51
NtRp93
(dp94
g54
(dp95
sg63
g59
sg56
(lp96
g49
(g70
g51
NtRp97
(dp98
g54
(dp99
g74
g75
ssg63
g93
sg56
(lp100
S'application'
p101
asbag49
(g70
g51
NtRp102
(dp103
g54
(dp104
g81
g82
ssg63
g93
sg56
(lp105
S':'
asbag49
(g70
g51
NtRp106
(dp107
g54
(dp108
sg63
g93
sg56
(lp109
g49
(g50
g51
NtRp110
(dp111
g54
(dp112
g62
I5
ssg63
g106
sg56
(lp113
S'183_Project'
p114
asbasbasbag49
(g65
g51
NtRp115
(dp116
g54
(dp117
sg63
g59
sg56
(lp118
g49
(g70
g51
NtRp119
(dp120
g54
(dp121
g74
g75
ssg63
g115
sg56
(lp122
g28
asbag49
(g70
g51
NtRp123
(dp124
g54
(dp125
g81
g82
ssg63
g115
sg56
(lp126
S':'
asbag49
(g70
g51
NtRp127
(dp128
g54
(dp129
sg63
g115
sg56
(lp130
g49
(g50
g51
NtRp131
(dp132
g54
(dp133
g62
I5
ssg63
g127
sg56
(lp134
g49
(g58
g51
NtRp135
(dp136
g54
(dp137
g62
I4
ssg63
Nsg56
(lp138
sbasbasbasbag49
(g65
g51
NtRp139
(dp140
g54
(dp141
sg63
g59
sg56
(lp142
g49
(g70
g51
NtRp143
(dp144
g54
(dp145
g74
g75
ssg63
g139
sg56
(lp146
S'body'
p147
asbag49
(g70
g51
NtRp148
(dp149
g54
(dp150
g81
g82
ssg63
g139
sg56
(lp151
S':'
asbag49
(g70
g51
NtRp152
(dp153
g54
(dp154
sg63
g139
sg56
(lp155
g49
(g50
g51
NtRp156
(dp157
g54
(dp158
g62
I5
ssg63
g152
sg56
(lp159
S'<cStringIO.StringO object at 0xa8039a0>'
p160
asbasbasbag49
(g65
g51
NtRp161
(dp162
g54
(dp163
sg63
g59
sg56
(lp164
g49
(g70
g51
NtRp165
(dp166
g54
(dp167
g74
g75
ssg63
g161
sg56
(lp168
S'cid'
p169
asbag49
(g70
g51
NtRp170
(dp171
g54
(dp172
g81
g82
ssg63
g161
sg56
(lp173
S':'
asbag49
(g70
g51
NtRp174
(dp175
g54
(dp176
sg63
g161
sg56
(lp177
g49
(g50
g51
NtRp178
(dp179
g54
(dp180
g62
I5
ssg63
g174
sg56
(lp181
S'None'
p182
asbasbasbag49
(g65
g51
NtRp183
(dp184
g54
(dp185
sg63
g59
sg56
(lp186
g49
(g70
g51
NtRp187
(dp188
g54
(dp189
g74
g75
ssg63
g183
sg56
(lp190
S'client'
p191
asbag49
(g70
g51
NtRp192
(dp193
g54
(dp194
g81
g82
ssg63
g183
sg56
(lp195
S':'
asbag49
(g70
g51
NtRp196
(dp197
g54
(dp198
sg63
g183
sg56
(lp199
g49
(g50
g51
NtRp200
(dp201
g54
(dp202
g62
I5
ssg63
g196
sg56
(lp203
S'127.0.0.1'
p204
asbasbasbag49
(g65
g51
NtRp205
(dp206
g54
(dp207
sg63
g59
sg56
(lp208
g49
(g70
g51
NtRp209
(dp210
g54
(dp211
g74
g75
ssg63
g205
sg56
(lp212
S'controller'
p213
asbag49
(g70
g51
NtRp214
(dp215
g54
(dp216
g81
g82
ssg63
g205
sg56
(lp217
S':'
asbag49
(g70
g51
NtRp218
(dp219
g54
(dp220
sg63
g205
sg56
(lp221
g49
(g50
g51
NtRp222
(dp223
g54
(dp224
g62
I5
ssg63
g218
sg56
(lp225
S'default'
p226
asbasbasbag49
(g65
g51
NtRp227
(dp228
g54
(dp229
sg63
g59
sg56
(lp230
g49
(g70
g51
NtRp231
(dp232
g54
(dp233
g74
g75
ssg63
g227
sg56
(lp234
S'cookies'
p235
asbag49
(g70
g51
NtRp236
(dp237
g54
(dp238
g81
g82
ssg63
g227
sg56
(lp239
S':'
asbag49
(g70
g51
NtRp240
(dp241
g54
(dp242
sg63
g227
sg56
(lp243
g49
(g50
g51
NtRp244
(dp245
g54
(dp246
g62
I5
ssg63
g240
sg56
(lp247
g49
(g58
g51
NtRp248
(dp249
g54
(dp250
g62
I4
ssg63
Nsg56
(lp251
g49
(g65
g51
NtRp252
(dp253
g54
(dp254
sg63
g248
sg56
(lp255
g49
(g70
g51
NtRp256
(dp257
g54
(dp258
g74
g75
ssg63
g252
sg56
(lp259
S'session_id_admin'
p260
asbag49
(g70
g51
NtRp261
(dp262
g54
(dp263
g81
g82
ssg63
g252
sg56
(lp264
S':'
asbag49
(g70
g51
NtRp265
(dp266
g54
(dp267
sg63
g252
sg56
(lp268
g49
(g50
g51
NtRp269
(dp270
g54
(dp271
g62
I4
ssg63
g265
sg56
(lp272
S'127.0.0.1-50f7bc6a-5dd0-46a8-ad8a-54e99554f427'
p273
ag49
(g58
g51
NtRp274
(dp275
g54
(dp276
g62
I3
ssg63
Nsg56
(lp277
g49
(g65
g51
NtRp278
(dp279
g54
(dp280
sg63
g274
sg56
(lp281
g49
(g70
g51
NtRp282
(dp283
g54
(dp284
g74
g75
ssg63
g278
sg56
(lp285
S'comment'
p286
asbag49
(g70
g51
NtRp287
(dp288
g54
(dp289
g81
g82
ssg63
g278
sg56
(lp290
S':'
asbag49
(g70
g51
NtRp291
(dp292
g54
(dp293
sg63
g278
sg56
(lp294
g49
(g50
g51
NtRp295
(dp296
g54
(dp297
g62
I3
ssg63
g291
sg56
(lp298
S''
asbasbasbag49
(g65
g51
NtRp299
(dp300
g54
(dp301
sg63
g274
sg56
(lp302
g49
(g70
g51
NtRp303
(dp304
g54
(dp305
g74
g75
ssg63
g299
sg56
(lp306
S'domain'
p307
asbag49
(g70
g51
NtRp308
(dp309
g54
(dp310
g81
g82
ssg63
g299
sg56
(lp311
S':'
asbag49
(g70
g51
NtRp312
(dp313
g54
(dp314
sg63
g299
sg56
(lp315
g49
(g50
g51
NtRp316
(dp317
g54
(dp318
g62
I3
ssg63
g312
sg56
(lp319
S''
asbasbasbag49
(g65
g51
NtRp320
(dp321
g54
(dp322
sg63
g274
sg56
(lp323
g49
(g70
g51
NtRp324
(dp325
g54
(dp326
g74
g75
ssg63
g320
sg56
(lp327
S'expires'
p328
asbag49
(g70
g51
NtRp329
(dp330
g54
(dp331
g81
g82
ssg63
g320
sg56
(lp332
S':'
asbag49
(g70
g51
NtRp333
(dp334
g54
(dp335
sg63
g320
sg56
(lp336
g49
(g50
g51
NtRp337
(dp338
g54
(dp339
g62
I3
ssg63
g333
sg56
(lp340
S''
asbasbasbag49
(g65
g51
NtRp341
(dp342
g54
(dp343
sg63
g274
sg56
(lp344
g49
(g70
g51
NtRp345
(dp346
g54
(dp347
g74
g75
ssg63
g341
sg56
(lp348
S'max-age'
p349
asbag49
(g70
g51
NtRp350
(dp351
g54
(dp352
g81
g82
ssg63
g341
sg56
(lp353
S':'
asbag49
(g70
g51
NtRp354
(dp355
g54
(dp356
sg63
g341
sg56
(lp357
g49
(g50
g51
NtRp358
(dp359
g54
(dp360
g62
I3
ssg63
g354
sg56
(lp361
S''
asbasbasbag49
(g65
g51
NtRp362
(dp363
g54
(dp364
sg63
g274
sg56
(lp365
g49
(g70
g51
NtRp366
(dp367
g54
(dp368
g74
g75
ssg63
g362
sg56
(lp369
S'path'
p370
asbag49
(g70
g51
NtRp371
(dp372
g54
(dp373
g81
g82
ssg63
g362
sg56
(lp374
S':'
asbag49
(g70
g51
NtRp375
(dp376
g54
(dp377
sg63
g362
sg56
(lp378
g49
(g50
g51
NtRp379
(dp380
g54
(dp381
g62
I3
ssg63
g375
sg56
(lp382
S''
asbasbasbag49
(g65
g51
NtRp383
(dp384
g54
(dp385
sg63
g274
sg56
(lp386
g49
(g70
g51
NtRp387
(dp388
g54
(dp389
g74
g75
ssg63
g383
sg56
(lp390
S'secure'
p391
asbag49
(g70
g51
NtRp392
(dp393
g54
(dp394
g81
g82
ssg63
g383
sg56
(lp395
S':'
asbag49
(g70
g51
NtRp396
(dp397
g54
(dp398
sg63
g383
sg56
(lp399
g49
(g50
g51
NtRp400
(dp401
g54
(dp402
g62
I3
ssg63
g396
sg56
(lp403
S''
asbasbasbag49
(g65
g51
NtRp404
(dp405
g54
(dp406
sg63
g274
sg56
(lp407
g49
(g70
g51
NtRp408
(dp409
g54
(dp410
g74
g75
ssg63
g404
sg56
(lp411
S'version'
p412
asbag49
(g70
g51
NtRp413
(dp414
g54
(dp415
g81
g82
ssg63
g404
sg56
(lp416
S':'
asbag49
(g70
g51
NtRp417
(dp418
g54
(dp419
sg63
g404
sg56
(lp420
g49
(g50
g51
NtRp421
(dp422
g54
(dp423
g62
I3
ssg63
g417
sg56
(lp424
S''
asbasbasbasbasbasbasbag49
(g65
g51
NtRp425
(dp426
g54
(dp427
sg63
g248
sg56
(lp428
g49
(g70
g51
NtRp429
(dp430
g54
(dp431
g74
g75
ssg63
g425
sg56
(lp432
S'session_id_hw1'
p433
asbag49
(g70
g51
NtRp434
(dp435
g54
(dp436
g81
g82
ssg63
g425
sg56
(lp437
S':'
asbag49
(g70
g51
NtRp438
(dp439
g54
(dp440
sg63
g425
sg56
(lp441
g49
(g50
g51
NtRp442
(dp443
g54
(dp444
g62
I4
ssg63
g438
sg56
(lp445
S'127.0.0.1-c1ab893d-5a98-4c2d-b248-26b8a25ad648'
p446
ag49
(g58
g51
NtRp447
(dp448
g54
(dp449
g62
I3
ssg63
Nsg56
(lp450
g49
(g65
g51
NtRp451
(dp452
g54
(dp453
sg63
g447
sg56
(lp454
g49
(g70
g51
NtRp455
(dp456
g54
(dp457
g74
g75
ssg63
g451
sg56
(lp458
g286
asbag49
(g70
g51
NtRp459
(dp460
g54
(dp461
g81
g82
ssg63
g451
sg56
(lp462
S':'
asbag49
(g70
g51
NtRp463
(dp464
g54
(dp465
sg63
g451
sg56
(lp466
g49
(g50
g51
NtRp467
(dp468
g54
(dp469
g62
I3
ssg63
g463
sg56
(lp470
S''
asbasbasbag49
(g65
g51
NtRp471
(dp472
g54
(dp473
sg63
g447
sg56
(lp474
g49
(g70
g51
NtRp475
(dp476
g54
(dp477
g74
g75
ssg63
g471
sg56
(lp478
g307
asbag49
(g70
g51
NtRp479
(dp480
g54
(dp481
g81
g82
ssg63
g471
sg56
(lp482
S':'
asbag49
(g70
g51
NtRp483
(dp484
g54
(dp485
sg63
g471
sg56
(lp486
g49
(g50
g51
NtRp487
(dp488
g54
(dp489
g62
I3
ssg63
g483
sg56
(lp490
S''
asbasbasbag49
(g65
g51
NtRp491
(dp492
g54
(dp493
sg63
g447
sg56
(lp494
g49
(g70
g51
NtRp495
(dp496
g54
(dp497
g74
g75
ssg63
g491
sg56
(lp498
g328
asbag49
(g70
g51
NtRp499
(dp500
g54
(dp501
g81
g82
ssg63
g491
sg56
(lp502
S':'
asbag49
(g70
g51
NtRp503
(dp504
g54
(dp505
sg63
g491
sg56
(lp506
g49
(g50
g51
NtRp507
(dp508
g54
(dp509
g62
I3
ssg63
g503
sg56
(lp510
S''
asbasbasbag49
(g65
g51
NtRp511
(dp512
g54
(dp513
sg63
g447
sg56
(lp514
g49
(g70
g51
NtRp515
(dp516
g54
(dp517
g74
g75
ssg63
g511
sg56
(lp518
g349
asbag49
(g70
g51
NtRp519
(dp520
g54
(dp521
g81
g82
ssg63
g511
sg56
(lp522
S':'
asbag49
(g70
g51
NtRp523
(dp524
g54
(dp525
sg63
g511
sg56
(lp526
g49
(g50
g51
NtRp527
(dp528
g54
(dp529
g62
I3
ssg63
g523
sg56
(lp530
S''
asbasbasbag49
(g65
g51
NtRp531
(dp532
g54
(dp533
sg63
g447
sg56
(lp534
g49
(g70
g51
NtRp535
(dp536
g54
(dp537
g74
g75
ssg63
g531
sg56
(lp538
g370
asbag49
(g70
g51
NtRp539
(dp540
g54
(dp541
g81
g82
ssg63
g531
sg56
(lp542
S':'
asbag49
(g70
g51
NtRp543
(dp544
g54
(dp545
sg63
g531
sg56
(lp546
g49
(g50
g51
NtRp547
(dp548
g54
(dp549
g62
I3
ssg63
g543
sg56
(lp550
S''
asbasbasbag49
(g65
g51
NtRp551
(dp552
g54
(dp553
sg63
g447
sg56
(lp554
g49
(g70
g51
NtRp555
(dp556
g54
(dp557
g74
g75
ssg63
g551
sg56
(lp558
g391
asbag49
(g70
g51
NtRp559
(dp560
g54
(dp561
g81
g82
ssg63
g551
sg56
(lp562
S':'
asbag49
(g70
g51
NtRp563
(dp564
g54
(dp565
sg63
g551
sg56
(lp566
g49
(g50
g51
NtRp567
(dp568
g54
(dp569
g62
I3
ssg63
g563
sg56
(lp570
S''
asbasbasbag49
(g65
g51
NtRp571
(dp572
g54
(dp573
sg63
g447
sg56
(lp574
g49
(g70
g51
NtRp575
(dp576
g54
(dp577
g74
g75
ssg63
g571
sg56
(lp578
g412
asbag49
(g70
g51
NtRp579
(dp580
g54
(dp581
g81
g82
ssg63
g571
sg56
(lp582
S':'
asbag49
(g70
g51
NtRp583
(dp584
g54
(dp585
sg63
g571
sg56
(lp586
g49
(g50
g51
NtRp587
(dp588
g54
(dp589
g62
I3
ssg63
g583
sg56
(lp590
S''
asbasbasbasbasbasbasbag49
(g65
g51
NtRp591
(dp592
g54
(dp593
sg63
g248
sg56
(lp594
g49
(g70
g51
NtRp595
(dp596
g54
(dp597
g74
g75
ssg63
g591
sg56
(lp598
S'session_id_project'
p599
asbag49
(g70
g51
NtRp600
(dp601
g54
(dp602
g81
g82
ssg63
g591
sg56
(lp603
S':'
asbag49
(g70
g51
NtRp604
(dp605
g54
(dp606
sg63
g591
sg56
(lp607
g49
(g50
g51
NtRp608
(dp609
g54
(dp610
g62
I4
ssg63
g604
sg56
(lp611
S'127.0.0.1-5e79944d-406f-43cf-b132-a365dfc2f67c'
p612
ag49
(g58
g51
NtRp613
(dp614
g54
(dp615
g62
I3
ssg63
Nsg56
(lp616
g49
(g65
g51
NtRp617
(dp618
g54
(dp619
sg63
g613
sg56
(lp620
g49
(g70
g51
NtRp621
(dp622
g54
(dp623
g74
g75
ssg63
g617
sg56
(lp624
g286
asbag49
(g70
g51
NtRp625
(dp626
g54
(dp627
g81
g82
ssg63
g617
sg56
(lp628
S':'
asbag49
(g70
g51
NtRp629
(dp630
g54
(dp631
sg63
g617
sg56
(lp632
g49
(g50
g51
NtRp633
(dp634
g54
(dp635
g62
I3
ssg63
g629
sg56
(lp636
S''
asbasbasbag49
(g65
g51
NtRp637
(dp638
g54
(dp639
sg63
g613
sg56
(lp640
g49
(g70
g51
NtRp641
(dp642
g54
(dp643
g74
g75
ssg63
g637
sg56
(lp644
g307
asbag49
(g70
g51
NtRp645
(dp646
g54
(dp647
g81
g82
ssg63
g637
sg56
(lp648
S':'
asbag49
(g70
g51
NtRp649
(dp650
g54
(dp651
sg63
g637
sg56
(lp652
g49
(g50
g51
NtRp653
(dp654
g54
(dp655
g62
I3
ssg63
g649
sg56
(lp656
S''
asbasbasbag49
(g65
g51
NtRp657
(dp658
g54
(dp659
sg63
g613
sg56
(lp660
g49
(g70
g51
NtRp661
(dp662
g54
(dp663
g74
g75
ssg63
g657
sg56
(lp664
g328
asbag49
(g70
g51
NtRp665
(dp666
g54
(dp667
g81
g82
ssg63
g657
sg56
(lp668
S':'
asbag49
(g70
g51
NtRp669
(dp670
g54
(dp671
sg63
g657
sg56
(lp672
g49
(g50
g51
NtRp673
(dp674
g54
(dp675
g62
I3
ssg63
g669
sg56
(lp676
S''
asbasbasbag49
(g65
g51
NtRp677
(dp678
g54
(dp679
sg63
g613
sg56
(lp680
g49
(g70
g51
NtRp681
(dp682
g54
(dp683
g74
g75
ssg63
g677
sg56
(lp684
g349
asbag49
(g70
g51
NtRp685
(dp686
g54
(dp687
g81
g82
ssg63
g677
sg56
(lp688
S':'
asbag49
(g70
g51
NtRp689
(dp690
g54
(dp691
sg63
g677
sg56
(lp692
g49
(g50
g51
NtRp693
(dp694
g54
(dp695
g62
I3
ssg63
g689
sg56
(lp696
S''
asbasbasbag49
(g65
g51
NtRp697
(dp698
g54
(dp699
sg63
g613
sg56
(lp700
g49
(g70
g51
NtRp701
(dp702
g54
(dp703
g74
g75
ssg63
g697
sg56
(lp704
g370
asbag49
(g70
g51
NtRp705
(dp706
g54
(dp707
g81
g82
ssg63
g697
sg56
(lp708
S':'
asbag49
(g70
g51
NtRp709
(dp710
g54
(dp711
sg63
g697
sg56
(lp712
g49
(g50
g51
NtRp713
(dp714
g54
(dp715
g62
I3
ssg63
g709
sg56
(lp716
S''
asbasbasbag49
(g65
g51
NtRp717
(dp718
g54
(dp719
sg63
g613
sg56
(lp720
g49
(g70
g51
NtRp721
(dp722
g54
(dp723
g74
g75
ssg63
g717
sg56
(lp724
g391
asbag49
(g70
g51
NtRp725
(dp726
g54
(dp727
g81
g82
ssg63
g717
sg56
(lp728
S':'
asbag49
(g70
g51
NtRp729
(dp730
g54
(dp731
sg63
g717
sg56
(lp732
g49
(g50
g51
NtRp733
(dp734
g54
(dp735
g62
I3
ssg63
g729
sg56
(lp736
S''
asbasbasbag49
(g65
g51
NtRp737
(dp738
g54
(dp739
sg63
g613
sg56
(lp740
g49
(g70
g51
NtRp741
(dp742
g54
(dp743
g74
g75
ssg63
g737
sg56
(lp744
g412
asbag49
(g70
g51
NtRp745
(dp746
g54
(dp747
g81
g82
ssg63
g737
sg56
(lp748
S':'
asbag49
(g70
g51
NtRp749
(dp750
g54
(dp751
sg63
g737
sg56
(lp752
g49
(g50
g51
NtRp753
(dp754
g54
(dp755
g62
I3
ssg63
g749
sg56
(lp756
S''
asbasbasbasbasbasbasbag49
(g65
g51
NtRp757
(dp758
g54
(dp759
sg63
g248
sg56
(lp760
g49
(g70
g51
NtRp761
(dp762
g54
(dp763
g74
g75
ssg63
g757
sg56
(lp764
S'session_id_welcome'
p765
asbag49
(g70
g51
NtRp766
(dp767
g54
(dp768
g81
g82
ssg63
g757
sg56
(lp769
S':'
asbag49
(g70
g51
NtRp770
(dp771
g54
(dp772
sg63
g757
sg56
(lp773
g49
(g50
g51
NtRp774
(dp775
g54
(dp776
g62
I4
ssg63
g770
sg56
(lp777
S'127.0.0.1-7974756f-c4aa-4df6-9174-0fcad796dda3'
p778
ag49
(g58
g51
NtRp779
(dp780
g54
(dp781
g62
I3
ssg63
Nsg56
(lp782
g49
(g65
g51
NtRp783
(dp784
g54
(dp785
sg63
g779
sg56
(lp786
g49
(g70
g51
NtRp787
(dp788
g54
(dp789
g74
g75
ssg63
g783
sg56
(lp790
g286
asbag49
(g70
g51
NtRp791
(dp792
g54
(dp793
g81
g82
ssg63
g783
sg56
(lp794
S':'
asbag49
(g70
g51
NtRp795
(dp796
g54
(dp797
sg63
g783
sg56
(lp798
g49
(g50
g51
NtRp799
(dp800
g54
(dp801
g62
I3
ssg63
g795
sg56
(lp802
S''
asbasbasbag49
(g65
g51
NtRp803
(dp804
g54
(dp805
sg63
g779
sg56
(lp806
g49
(g70
g51
NtRp807
(dp808
g54
(dp809
g74
g75
ssg63
g803
sg56
(lp810
g307
asbag49
(g70
g51
NtRp811
(dp812
g54
(dp813
g81
g82
ssg63
g803
sg56
(lp814
S':'
asbag49
(g70
g51
NtRp815
(dp816
g54
(dp817
sg63
g803
sg56
(lp818
g49
(g50
g51
NtRp819
(dp820
g54
(dp821
g62
I3
ssg63
g815
sg56
(lp822
S''
asbasbasbag49
(g65
g51
NtRp823
(dp824
g54
(dp825
sg63
g779
sg56
(lp826
g49
(g70
g51
NtRp827
(dp828
g54
(dp829
g74
g75
ssg63
g823
sg56
(lp830
g328
asbag49
(g70
g51
NtRp831
(dp832
g54
(dp833
g81
g82
ssg63
g823
sg56
(lp834
S':'
asbag49
(g70
g51
NtRp835
(dp836
g54
(dp837
sg63
g823
sg56
(lp838
g49
(g50
g51
NtRp839
(dp840
g54
(dp841
g62
I3
ssg63
g835
sg56
(lp842
S''
asbasbasbag49
(g65
g51
NtRp843
(dp844
g54
(dp845
sg63
g779
sg56
(lp846
g49
(g70
g51
NtRp847
(dp848
g54
(dp849
g74
g75
ssg63
g843
sg56
(lp850
g349
asbag49
(g70
g51
NtRp851
(dp852
g54
(dp853
g81
g82
ssg63
g843
sg56
(lp854
S':'
asbag49
(g70
g51
NtRp855
(dp856
g54
(dp857
sg63
g843
sg56
(lp858
g49
(g50
g51
NtRp859
(dp860
g54
(dp861
g62
I3
ssg63
g855
sg56
(lp862
S''
asbasbasbag49
(g65
g51
NtRp863
(dp864
g54
(dp865
sg63
g779
sg56
(lp866
g49
(g70
g51
NtRp867
(dp868
g54
(dp869
g74
g75
ssg63
g863
sg56
(lp870
g370
asbag49
(g70
g51
NtRp871
(dp872
g54
(dp873
g81
g82
ssg63
g863
sg56
(lp874
S':'
asbag49
(g70
g51
NtRp875
(dp876
g54
(dp877
sg63
g863
sg56
(lp878
g49
(g50
g51
NtRp879
(dp880
g54
(dp881
g62
I3
ssg63
g875
sg56
(lp882
S''
asbasbasbag49
(g65
g51
NtRp883
(dp884
g54
(dp885
sg63
g779
sg56
(lp886
g49
(g70
g51
NtRp887
(dp888
g54
(dp889
g74
g75
ssg63
g883
sg56
(lp890
g391
asbag49
(g70
g51
NtRp891
(dp892
g54
(dp893
g81
g82
ssg63
g883
sg56
(lp894
S':'
asbag49
(g70
g51
NtRp895
(dp896
g54
(dp897
sg63
g883
sg56
(lp898
g49
(g50
g51
NtRp899
(dp900
g54
(dp901
g62
I3
ssg63
g895
sg56
(lp902
S''
asbasbasbag49
(g65
g51
NtRp903
(dp904
g54
(dp905
sg63
g779
sg56
(lp906
g49
(g70
g51
NtRp907
(dp908
g54
(dp909
g74
g75
ssg63
g903
sg56
(lp910
g412
asbag49
(g70
g51
NtRp911
(dp912
g54
(dp913
g81
g82
ssg63
g903
sg56
(lp914
S':'
asbag49
(g70
g51
NtRp915
(dp916
g54
(dp917
sg63
g903
sg56
(lp918
g49
(g50
g51
NtRp919
(dp920
g54
(dp921
g62
I3
ssg63
g915
sg56
(lp922
S''
asbasbasbasbasbasbasbasbasbasbasbag49
(g65
g51
NtRp923
(dp924
g54
(dp925
sg63
g59
sg56
(lp926
g49
(g70
g51
NtRp927
(dp928
g54
(dp929
g74
g75
ssg63
g923
sg56
(lp930
S'env'
p931
asbag49
(g70
g51
NtRp932
(dp933
g54
(dp934
g81
g82
ssg63
g923
sg56
(lp935
S':'
asbag49
(g70
g51
NtRp936
(dp937
g54
(dp938
sg63
g923
sg56
(lp939
g49
(g50
g51
NtRp940
(dp941
g54
(dp942
g62
I5
ssg63
g936
sg56
(lp943
g49
(g58
g51
NtRp944
(dp945
g54
(dp946
g62
I4
ssg63
Nsg56
(lp947
g49
(g65
g51
NtRp948
(dp949
g54
(dp950
sg63
g944
sg56
(lp951
g49
(g70
g51
NtRp952
(dp953
g54
(dp954
g74
g75
ssg63
g948
sg56
(lp955
S'app_folders'
p956
asbag49
(g70
g51
NtRp957
(dp958
g54
(dp959
g81
g82
ssg63
g948
sg56
(lp960
S':'
asbag49
(g70
g51
NtRp961
(dp962
g54
(dp963
sg63
g948
sg56
(lp964
g49
(g50
g51
NtRp965
(dp966
g54
(dp967
g62
I4
ssg63
g961
sg56
(lp968
S"set(['/Applications/web2py.app/Contents/Resources/applications/Project/', '/Applications/web2py.app/Contents/Resources/applications/hw2/', '/Applications/web2py.app/Contents/Resources/applications/admin/', '/Applications/web2py.app/Contents/Resources/applications/welcome/', '/Applications/web2py.app/Contents/Resources/applications/183_Project/'])"
p969
asbasbasbag49
(g65
g51
NtRp970
(dp971
g54
(dp972
sg63
g944
sg56
(lp973
g49
(g70
g51
NtRp974
(dp975
g54
(dp976
g74
g75
ssg63
g970
sg56
(lp977
S'applications_parent'
p978
asbag49
(g70
g51
NtRp979
(dp980
g54
(dp981
g81
g82
ssg63
g970
sg56
(lp982
S':'
asbag49
(g70
g51
NtRp983
(dp984
g54
(dp985
sg63
g970
sg56
(lp986
g49
(g50
g51
NtRp987
(dp988
g54
(dp989
g62
I4
ssg63
g983
sg56
(lp990
S'/Applications/web2py.app/Contents/Resources'
p991
asbasbasbag49
(g65
g51
NtRp992
(dp993
g54
(dp994
sg63
g944
sg56
(lp995
g49
(g70
g51
NtRp996
(dp997
g54
(dp998
g74
g75
ssg63
g992
sg56
(lp999
S'cmd_args'
p1000
asbag49
(g70
g51
NtRp1001
(dp1002
g54
(dp1003
g81
g82
ssg63
g992
sg56
(lp1004
S':'
asbag49
(g70
g51
NtRp1005
(dp1006
g54
(dp1007
sg63
g992
sg56
(lp1008
g49
(g50
g51
NtRp1009
(dp1010
g54
(dp1011
g62
I4
ssg63
g1005
sg56
(lp1012
g49
(g58
g51
NtRp1013
(dp1014
g54
(dp1015
g62
I3
ssg63
Nsg56
(lp1016
sbasbasbasbag49
(g65
g51
NtRp1017
(dp1018
g54
(dp1019
sg63
g944
sg56
(lp1020
g49
(g70
g51
NtRp1021
(dp1022
g54
(dp1023
g74
g75
ssg63
g1017
sg56
(lp1024
S'cmd_options'
p1025
asbag49
(g70
g51
NtRp1026
(dp1027
g54
(dp1028
g81
g82
ssg63
g1017
sg56
(lp1029
S':'
asbag49
(g70
g51
NtRp1030
(dp1031
g54
(dp1032
sg63
g1017
sg56
(lp1033
g49
(g50
g51
NtRp1034
(dp1035
g54
(dp1036
g62
I4
ssg63
g1030
sg56
(lp1037
S"<Values at 0x57f1918: {'verbose': False, 'ip': '127.0.0.1', 'with_scheduler': False, 'ips': ['10.0.0.2'], 'shutdown_timeout': 5, 'taskbar': False, 'port': 8000, 'maxthreads': None, 'softcron': False, 'server_name': 'Lukes-MacBook-Pro.local', 'bpython': False, 'nogui': False, 'nocron': False, 'extcron': False, 'run_system_tests': False, 'test': None, 'folder': '/Applications/web2py.app/Contents/Resources', 'config': '', 'import_models': False, 'winservice': '', 'shell': None, 'run': '', 'log_filename': 'httpserver.log', 'debuglevel': 30, 'args': [''], 'socket_timeout': 5, 'ssl_ca_certificate': None, 'scheduler': None, 'profiler_filename': None, 'ssl_private_key': '', 'scheduler_groups': None, 'password': '<ask>', 'request_queue_size': 5, 'ssl_certificate': '', 'cronjob': False, 'numthreads': None, 'quiet': False, 'interfaces': None, 'minthreads': None, 'timeout': 10, 'plain': False, 'nobanner': False, 'pid_filename': 'httpserver.pid'}>"
p1038
asbasbasbag49
(g65
g51
NtRp1039
(dp1040
g54
(dp1041
sg63
g944
sg56
(lp1042
g49
(g70
g51
NtRp1043
(dp1044
g54
(dp1045
g74
g75
ssg63
g1039
sg56
(lp1046
S'db_sessions'
p1047
asbag49
(g70
g51
NtRp1048
(dp1049
g54
(dp1050
g81
g82
ssg63
g1039
sg56
(lp1051
S':'
asbag49
(g70
g51
NtRp1052
(dp1053
g54
(dp1054
sg63
g1039
sg56
(lp1055
g49
(g50
g51
NtRp1056
(dp1057
g54
(dp1058
g62
I4
ssg63
g1052
sg56
(lp1059
S'set([])'
p1060
asbasbasbag49
(g65
g51
NtRp1061
(dp1062
g54
(dp1063
sg63
g944
sg56
(lp1064
g49
(g70
g51
NtRp1065
(dp1066
g54
(dp1067
g74
g75
ssg63
g1061
sg56
(lp1068
S'debugging'
p1069
asbag49
(g70
g51
NtRp1070
(dp1071
g54
(dp1072
g81
g82
ssg63
g1061
sg56
(lp1073
S':'
asbag49
(g70
g51
NtRp1074
(dp1075
g54
(dp1076
sg63
g1061
sg56
(lp1077
g49
(g50
g51
NtRp1078
(dp1079
g54
(dp1080
g62
I4
ssg63
g1074
sg56
(lp1081
g92
asbasbasbag49
(g65
g51
NtRp1082
(dp1083
g54
(dp1084
sg63
g944
sg56
(lp1085
g49
(g70
g51
NtRp1086
(dp1087
g54
(dp1088
g74
g75
ssg63
g1082
sg56
(lp1089
S'gluon_parent'
p1090
asbag49
(g70
g51
NtRp1091
(dp1092
g54
(dp1093
g81
g82
ssg63
g1082
sg56
(lp1094
S':'
asbag49
(g70
g51
NtRp1095
(dp1096
g54
(dp1097
sg63
g1082
sg56
(lp1098
g49
(g50
g51
NtRp1099
(dp1100
g54
(dp1101
g62
I4
ssg63
g1095
sg56
(lp1102
S'/Applications/web2py.app/Contents/Resources'
p1103
asbasbasbag49
(g65
g51
NtRp1104
(dp1105
g54
(dp1106
sg63
g944
sg56
(lp1107
g49
(g70
g51
NtRp1108
(dp1109
g54
(dp1110
g74
g75
ssg63
g1104
sg56
(lp1111
S'http_accept'
p1112
asbag49
(g70
g51
NtRp1113
(dp1114
g54
(dp1115
g81
g82
ssg63
g1104
sg56
(lp1116
S':'
asbag49
(g70
g51
NtRp1117
(dp1118
g54
(dp1119
sg63
g1104
sg56
(lp1120
g49
(g50
g51
NtRp1121
(dp1122
g54
(dp1123
g62
I4
ssg63
g1117
sg56
(lp1124
S'text/html,application/xhtml+xml,application/xml;q=0.9,*/*;q=0.8'
p1125
asbasbasbag49
(g65
g51
NtRp1126
(dp1127
g54
(dp1128
sg63
g944
sg56
(lp1129
g49
(g70
g51
NtRp1130
(dp1131
g54
(dp1132
g74
g75
ssg63
g1126
sg56
(lp1133
S'http_accept_charset'
p1134
asbag49
(g70
g51
NtRp1135
(dp1136
g54
(dp1137
g81
g82
ssg63
g1126
sg56
(lp1138
S':'
asbag49
(g70
g51
NtRp1139
(dp1140
g54
(dp1141
sg63
g1126
sg56
(lp1142
g49
(g50
g51
NtRp1143
(dp1144
g54
(dp1145
g62
I4
ssg63
g1139
sg56
(lp1146
S'ISO-8859-1,utf-8;q=0.7,*;q=0.3'
p1147
asbasbasbag49
(g65
g51
NtRp1148
(dp1149
g54
(dp1150
sg63
g944
sg56
(lp1151
g49
(g70
g51
NtRp1152
(dp1153
g54
(dp1154
g74
g75
ssg63
g1148
sg56
(lp1155
S'http_accept_encoding'
p1156
asbag49
(g70
g51
NtRp1157
(dp1158
g54
(dp1159
g81
g82
ssg63
g1148
sg56
(lp1160
S':'
asbag49
(g70
g51
NtRp1161
(dp1162
g54
(dp1163
sg63
g1148
sg56
(lp1164
g49
(g50
g51
NtRp1165
(dp1166
g54
(dp1167
g62
I4
ssg63
g1161
sg56
(lp1168
S'gzip,deflate,sdch'
p1169
asbasbasbag49
(g65
g51
NtRp1170
(dp1171
g54
(dp1172
sg63
g944
sg56
(lp1173
g49
(g70
g51
NtRp1174
(dp1175
g54
(dp1176
g74
g75
ssg63
g1170
sg56
(lp1177
S'http_accept_language'
p1178
asbag49
(g70
g51
NtRp1179
(dp1180
g54
(dp1181
g81
g82
ssg63
g1170
sg56
(lp1182
S':'
asbag49
(g70
g51
NtRp1183
(dp1184
g54
(dp1185
sg63
g1170
sg56
(lp1186
g49
(g50
g51
NtRp1187
(dp1188
g54
(dp1189
g62
I4
ssg63
g1183
sg56
(lp1190
S'en-US,en;q=0.8'
p1191
asbasbasbag49
(g65
g51
NtRp1192
(dp1193
g54
(dp1194
sg63
g944
sg56
(lp1195
g49
(g70
g51
NtRp1196
(dp1197
g54
(dp1198
g74
g75
ssg63
g1192
sg56
(lp1199
S'http_connection'
p1200
asbag49
(g70
g51
NtRp1201
(dp1202
g54
(dp1203
g81
g82
ssg63
g1192
sg56
(lp1204
S':'
asbag49
(g70
g51
NtRp1205
(dp1206
g54
(dp1207
sg63
g1192
sg56
(lp1208
g49
(g50
g51
NtRp1209
(dp1210
g54
(dp1211
g62
I4
ssg63
g1205
sg56
(lp1212
S'keep-alive'
p1213
asbasbasbag49
(g65
g51
NtRp1214
(dp1215
g54
(dp1216
sg63
g944
sg56
(lp1217
g49
(g70
g51
NtRp1218
(dp1219
g54
(dp1220
g74
g75
ssg63
g1214
sg56
(lp1221
S'http_cookie'
p1222
asbag49
(g70
g51
NtRp1223
(dp1224
g54
(dp1225
g81
g82
ssg63
g1214
sg56
(lp1226
S':'
asbag49
(g70
g51
NtRp1227
(dp1228
g54
(dp1229
sg63
g1214
sg56
(lp1230
g49
(g50
g51
NtRp1231
(dp1232
g54
(dp1233
g62
I4
ssg63
g1227
sg56
(lp1234
S'session_id_hw1=127.0.0.1-c1ab893d-5a98-4c2d-b248-26b8a25ad648; session_id_project=127.0.0.1-5e79944d-406f-43cf-b132-a365dfc2f67c; session_id_welcome=127.0.0.1-7974756f-c4aa-4df6-9174-0fcad796dda3; session_id_admin=127.0.0.1-50f7bc6a-5dd0-46a8-ad8a-54e99554f427'
p1235
asbasbasbag49
(g65
g51
NtRp1236
(dp1237
g54
(dp1238
sg63
g944
sg56
(lp1239
g49
(g70
g51
NtRp1240
(dp1241
g54
(dp1242
g74
g75
ssg63
g1236
sg56
(lp1243
S'http_host'
p1244
asbag49
(g70
g51
NtRp1245
(dp1246
g54
(dp1247
g81
g82
ssg63
g1236
sg56
(lp1248
S':'
asbag49
(g70
g51
NtRp1249
(dp1250
g54
(dp1251
sg63
g1236
sg56
(lp1252
g49
(g50
g51
NtRp1253
(dp1254
g54
(dp1255
g62
I4
ssg63
g1249
sg56
(lp1256
S'127.0.0.1:8000'
p1257
asbasbasbag49
(g65
g51
NtRp1258
(dp1259
g54
(dp1260
sg63
g944
sg56
(lp1261
g49
(g70
g51
NtRp1262
(dp1263
g54
(dp1264
g74
g75
ssg63
g1258
sg56
(lp1265
S'http_referer'
p1266
asbag49
(g70
g51
NtRp1267
(dp1268
g54
(dp1269
g81
g82
ssg63
g1258
sg56
(lp1270
S':'
asbag49
(g70
g51
NtRp1271
(dp1272
g54
(dp1273
sg63
g1258
sg56
(lp1274
g49
(g50
g51
NtRp1275
(dp1276
g54
(dp1277
g62
I4
ssg63
g1271
sg56
(lp1278
S'http://127.0.0.1:8000/admin/default/design/183_Project'
p1279
asbasbasbag49
(g65
g51
NtRp1280
(dp1281
g54
(dp1282
sg63
g944
sg56
(lp1283
g49
(g70
g51
NtRp1284
(dp1285
g54
(dp1286
g74
g75
ssg63
g1280
sg56
(lp1287
S'http_user_agent'
p1288
asbag49
(g70
g51
NtRp1289
(dp1290
g54
(dp1291
g81
g82
ssg63
g1280
sg56
(lp1292
S':'
asbag49
(g70
g51
NtRp1293
(dp1294
g54
(dp1295
sg63
g1280
sg56
(lp1296
g49
(g50
g51
NtRp1297
(dp1298
g54
(dp1299
g62
I4
ssg63
g1293
sg56
(lp1300
S'Mozilla/5.0 (Macintosh; Intel Mac OS X 10_7_3) AppleWebKit/537.4 (KHTML, like Gecko) Chrome/22.0.1229.94 Safari/537.4'
p1301
asbasbasbag49
(g65
g51
NtRp1302
(dp1303
g54
(dp1304
sg63
g944
sg56
(lp1305
g49
(g70
g51
NtRp1306
(dp1307
g54
(dp1308
g74
g75
ssg63
g1302
sg56
(lp1309
S'is_jython'
p1310
asbag49
(g70
g51
NtRp1311
(dp1312
g54
(dp1313
g81
g82
ssg63
g1302
sg56
(lp1314
S':'
asbag49
(g70
g51
NtRp1315
(dp1316
g54
(dp1317
sg63
g1302
sg56
(lp1318
g49
(g50
g51
NtRp1319
(dp1320
g54
(dp1321
g62
I4
ssg63
g1315
sg56
(lp1322
g92
asbasbasbag49
(g65
g51
NtRp1323
(dp1324
g54
(dp1325
sg63
g944
sg56
(lp1326
g49
(g70
g51
NtRp1327
(dp1328
g54
(dp1329
g74
g75
ssg63
g1323
sg56
(lp1330
S'is_pypy'
p1331
asbag49
(g70
g51
NtRp1332
(dp1333
g54
(dp1334
g81
g82
ssg63
g1323
sg56
(lp1335
S':'
asbag49
(g70
g51
NtRp1336
(dp1337
g54
(dp1338
sg63
g1323
sg56
(lp1339
g49
(g50
g51
NtRp1340
(dp1341
g54
(dp1342
g62
I4
ssg63
g1336
sg56
(lp1343
g92
asbasbasbag49
(g65
g51
NtRp1344
(dp1345
g54
(dp1346
sg63
g944
sg56
(lp1347
g49
(g70
g51
NtRp1348
(dp1349
g54
(dp1350
g74
g75
ssg63
g1344
sg56
(lp1351
S'path_info'
p1352
asbag49
(g70
g51
NtRp1353
(dp1354
g54
(dp1355
g81
g82
ssg63
g1344
sg56
(lp1356
S':'
asbag49
(g70
g51
NtRp1357
(dp1358
g54
(dp1359
sg63
g1344
sg56
(lp1360
g49
(g50
g51
NtRp1361
(dp1362
g54
(dp1363
g62
I4
ssg63
g1357
sg56
(lp1364
S'/183_Project/default/index'
p1365
asbasbasbag49
(g65
g51
NtRp1366
(dp1367
g54
(dp1368
sg63
g944
sg56
(lp1369
g49
(g70
g51
NtRp1370
(dp1371
g54
(dp1372
g74
g75
ssg63
g1366
sg56
(lp1373
S'query_string'
p1374
asbag49
(g70
g51
NtRp1375
(dp1376
g54
(dp1377
g81
g82
ssg63
g1366
sg56
(lp1378
S':'
asbag49
(g70
g51
NtRp1379
(dp1380
g54
(dp1381
sg63
g1366
sg56
(lp1382
g49
(g50
g51
NtRp1383
(dp1384
g54
(dp1385
g62
I4
ssg63
g1379
sg56
(lp1386
S''
asbasbasbag49
(g65
g51
NtRp1387
(dp1388
g54
(dp1389
sg63
g944
sg56
(lp1390
g49
(g70
g51
NtRp1391
(dp1392
g54
(dp1393
g74
g75
ssg63
g1387
sg56
(lp1394
S'remote_addr'
p1395
asbag49
(g70
g51
NtRp1396
(dp1397
g54
(dp1398
g81
g82
ssg63
g1387
sg56
(lp1399
S':'
asbag49
(g70
g51
NtRp1400
(dp1401
g54
(dp1402
sg63
g1387
sg56
(lp1403
g49
(g50
g51
NtRp1404
(dp1405
g54
(dp1406
g62
I4
ssg63
g1400
sg56
(lp1407
g204
asbasbasbag49
(g65
g51
NtRp1408
(dp1409
g54
(dp1410
sg63
g944
sg56
(lp1411
g49
(g70
g51
NtRp1412
(dp1413
g54
(dp1414
g74
g75
ssg63
g1408
sg56
(lp1415
S'remote_port'
p1416
asbag49
(g70
g51
NtRp1417
(dp1418
g54
(dp1419
g81
g82
ssg63
g1408
sg56
(lp1420
S':'
asbag49
(g70
g51
NtRp1421
(dp1422
g54
(dp1423
sg63
g1408
sg56
(lp1424
g49
(g50
g51
NtRp1425
(dp1426
g54
(dp1427
g62
I4
ssg63
g1421
sg56
(lp1428
S'57917'
p1429
asbasbasbag49
(g65
g51
NtRp1430
(dp1431
g54
(dp1432
sg63
g944
sg56
(lp1433
g49
(g70
g51
NtRp1434
(dp1435
g54
(dp1436
g74
g75
ssg63
g1430
sg56
(lp1437
S'request_method'
p1438
asbag49
(g70
g51
NtRp1439
(dp1440
g54
(dp1441
g81
g82
ssg63
g1430
sg56
(lp1442
S':'
asbag49
(g70
g51
NtRp1443
(dp1444
g54
(dp1445
sg63
g1430
sg56
(lp1446
g49
(g50
g51
NtRp1447
(dp1448
g54
(dp1449
g62
I4
ssg63
g1443
sg56
(lp1450
S'GET'
p1451
asbasbasbag49
(g65
g51
NtRp1452
(dp1453
g54
(dp1454
sg63
g944
sg56
(lp1455
g49
(g70
g51
NtRp1456
(dp1457
g54
(dp1458
g74
g75
ssg63
g1452
sg56
(lp1459
S'request_uri'
p1460
asbag49
(g70
g51
NtRp1461
(dp1462
g54
(dp1463
g81
g82
ssg63
g1452
sg56
(lp1464
S':'
asbag49
(g70
g51
NtRp1465
(dp1466
g54
(dp1467
sg63
g1452
sg56
(lp1468
g49
(g50
g51
NtRp1469
(dp1470
g54
(dp1471
g62
I4
ssg63
g1465
sg56
(lp1472
g1365
asbasbasbag49
(g65
g51
NtRp1473
(dp1474
g54
(dp1475
sg63
g944
sg56
(lp1476
g49
(g70
g51
NtRp1477
(dp1478
g54
(dp1479
g74
g75
ssg63
g1473
sg56
(lp1480
S'script_name'
p1481
asbag49
(g70
g51
NtRp1482
(dp1483
g54
(dp1484
g81
g82
ssg63
g1473
sg56
(lp1485
S':'
asbag49
(g70
g51
NtRp1486
(dp1487
g54
(dp1488
sg63
g1473
sg56
(lp1489
g49
(g50
g51
NtRp1490
(dp1491
g54
(dp1492
g62
I4
ssg63
g1486
sg56
(lp1493
S''
asbasbasbag49
(g65
g51
NtRp1494
(dp1495
g54
(dp1496
sg63
g944
sg56
(lp1497
g49
(g70
g51
NtRp1498
(dp1499
g54
(dp1500
g74
g75
ssg63
g1494
sg56
(lp1501
S'server_name'
p1502
asbag49
(g70
g51
NtRp1503
(dp1504
g54
(dp1505
g81
g82
ssg63
g1494
sg56
(lp1506
S':'
asbag49
(g70
g51
NtRp1507
(dp1508
g54
(dp1509
sg63
g1494
sg56
(lp1510
g49
(g50
g51
NtRp1511
(dp1512
g54
(dp1513
g62
I4
ssg63
g1507
sg56
(lp1514
S'Lukes-MacBook-Pro.local'
p1515
asbasbasbag49
(g65
g51
NtRp1516
(dp1517
g54
(dp1518
sg63
g944
sg56
(lp1519
g49
(g70
g51
NtRp1520
(dp1521
g54
(dp1522
g74
g75
ssg63
g1516
sg56
(lp1523
S'server_port'
p1524
asbag49
(g70
g51
NtRp1525
(dp1526
g54
(dp1527
g81
g82
ssg63
g1516
sg56
(lp1528
S':'
asbag49
(g70
g51
NtRp1529
(dp1530
g54
(dp1531
sg63
g1516
sg56
(lp1532
g49
(g50
g51
NtRp1533
(dp1534
g54
(dp1535
g62
I4
ssg63
g1529
sg56
(lp1536
S'8000'
p1537
asbasbasbag49
(g65
g51
NtRp1538
(dp1539
g54
(dp1540
sg63
g944
sg56
(lp1541
g49
(g70
g51
NtRp1542
(dp1543
g54
(dp1544
g74
g75
ssg63
g1538
sg56
(lp1545
S'server_protocol'
p1546
asbag49
(g70
g51
NtRp1547
(dp1548
g54
(dp1549
g81
g82
ssg63
g1538
sg56
(lp1550
S':'
asbag49
(g70
g51
NtRp1551
(dp1552
g54
(dp1553
sg63
g1538
sg56
(lp1554
g49
(g50
g51
NtRp1555
(dp1556
g54
(dp1557
g62
I4
ssg63
g1551
sg56
(lp1558
S'HTTP/1.1'
p1559
asbasbasbag49
(g65
g51
NtRp1560
(dp1561
g54
(dp1562
sg63
g944
sg56
(lp1563
g49
(g70
g51
NtRp1564
(dp1565
g54
(dp1566
g74
g75
ssg63
g1560
sg56
(lp1567
S'server_software'
p1568
asbag49
(g70
g51
NtRp1569
(dp1570
g54
(dp1571
g81
g82
ssg63
g1560
sg56
(lp1572
S':'
asbag49
(g70
g51
NtRp1573
(dp1574
g54
(dp1575
sg63
g1560
sg56
(lp1576
g49
(g50
g51
NtRp1577
(dp1578
g54
(dp1579
g62
I4
ssg63
g1573
sg56
(lp1580
S'Rocket 1.2.4'
p1581
asbasbasbag49
(g65
g51
NtRp1582
(dp1583
g54
(dp1584
sg63
g944
sg56
(lp1585
g49
(g70
g51
NtRp1586
(dp1587
g54
(dp1588
g74
g75
ssg63
g1582
sg56
(lp1589
S'web2py_crontype'
p1590
asbag49
(g70
g51
NtRp1591
(dp1592
g54
(dp1593
g81
g82
ssg63
g1582
sg56
(lp1594
S':'
asbag49
(g70
g51
NtRp1595
(dp1596
g54
(dp1597
sg63
g1582
sg56
(lp1598
g49
(g50
g51
NtRp1599
(dp1600
g54
(dp1601
g62
I4
ssg63
g1595
sg56
(lp1602
S'hard'
p1603
asbasbasbag49
(g65
g51
NtRp1604
(dp1605
g54
(dp1606
sg63
g944
sg56
(lp1607
g49
(g70
g51
NtRp1608
(dp1609
g54
(dp1610
g74
g75
ssg63
g1604
sg56
(lp1611
S'web2py_path'
p1612
asbag49
(g70
g51
NtRp1613
(dp1614
g54
(dp1615
g81
g82
ssg63
g1604
sg56
(lp1616
S':'
asbag49
(g70
g51
NtRp1617
(dp1618
g54
(dp1619
sg63
g1604
sg56
(lp1620
g49
(g50
g51
NtRp1621
(dp1622
g54
(dp1623
g62
I4
ssg63
g1617
sg56
(lp1624
g991
asbasbasbag49
(g65
g51
NtRp1625
(dp1626
g54
(dp1627
sg63
g944
sg56
(lp1628
g49
(g70
g51
NtRp1629
(dp1630
g54
(dp1631
g74
g75
ssg63
g1625
sg56
(lp1632
S'web2py_version'
p1633
asbag49
(g70
g51
NtRp1634
(dp1635
g54
(dp1636
g81
g82
ssg63
g1625
sg56
(lp1637
S':'
asbag49
(g70
g51
NtRp1638
(dp1639
g54
(dp1640
sg63
g1625
sg56
(lp1641
g49
(g50
g51
NtRp1642
(dp1643
g54
(dp1644
g62
I4
ssg63
g1638
sg56
(lp1645
g49
(g58
g51
NtRp1646
(dp1647
g54
(dp1648
g62
I3
ssg63
Nsg56
(lp1649
g49
(g65
g51
NtRp1650
(dp1651
g54
(dp1652
sg63
g1646
sg56
(lp1653
g49
(g70
g51
NtRp1654
(dp1655
g54
(dp1656
sg63
g1650
sg56
(lp1657
g49
(g50
g51
NtRp1658
(dp1659
g54
(dp1660
g62
I3
ssg63
g1654
sg56
(lp1661
S'2'
asbasbasbag49
(g65
g51
NtRp1662
(dp1663
g54
(dp1664
sg63
g1646
sg56
(lp1665
g49
(g70
g51
NtRp1666
(dp1667
g54
(dp1668
sg63
g1662
sg56
(lp1669
g49
(g50
g51
NtRp1670
(dp1671
g54
(dp1672
g62
I3
ssg63
g1666
sg56
(lp1673
S'0'
asbasbasbag49
(g65
g51
NtRp1674
(dp1675
g54
(dp1676
sg63
g1646
sg56
(lp1677
g49
(g70
g51
NtRp1678
(dp1679
g54
(dp1680
sg63
g1674
sg56
(lp1681
g49
(g50
g51
NtRp1682
(dp1683
g54
(dp1684
g62
I3
ssg63
g1678
sg56
(lp1685
S'9'
asbasbasbag49
(g65
g51
NtRp1686
(dp1687
g54
(dp1688
sg63
g1646
sg56
(lp1689
g49
(g70
g51
NtRp1690
(dp1691
g54
(dp1692
sg63
g1686
sg56
(lp1693
g49
(g50
g51
NtRp1694
(dp1695
g54
(dp1696
g62
I3
ssg63
g1690
sg56
(lp1697
S'datetime.datetime(2012, 9, 13, 23, 51, 30)'
p1698
asbasbasbag49
(g65
g51
NtRp1699
(dp1700
g54
(dp1701
sg63
g1646
sg56
(lp1702
g49
(g70
g51
NtRp1703
(dp1704
g54
(dp1705
sg63
g1699
sg56
(lp1706
g49
(g50
g51
NtRp1707
(dp1708
g54
(dp1709
g62
I3
ssg63
g1703
sg56
(lp1710
S'stable'
p1711
asbasbasbasbasbasbasbag49
(g65
g51
NtRp1712
(dp1713
g54
(dp1714
sg63
g944
sg56
(lp1715
g49
(g70
g51
NtRp1716
(dp1717
g54
(dp1718
g74
g75
ssg63
g1712
sg56
(lp1719
S'wsgi_errors'
p1720
asbag49
(g70
g51
NtRp1721
(dp1722
g54
(dp1723
g81
g82
ssg63
g1712
sg56
(lp1724
S':'
asbag49
(g70
g51
NtRp1725
(dp1726
g54
(dp1727
sg63
g1712
sg56
(lp1728
g49
(g50
g51
NtRp1729
(dp1730
g54
(dp1731
g62
I4
ssg63
g1725
sg56
(lp1732
S"<open file '<stderr>', mode 'w' at 0x750b0>"
p1733
asbasbasbag49
(g65
g51
NtRp1734
(dp1735
g54
(dp1736
sg63
g944
sg56
(lp1737
g49
(g70
g51
NtRp1738
(dp1739
g54
(dp1740
g74
g75
ssg63
g1734
sg56
(lp1741
S'wsgi_file_wrapper'
p1742
asbag49
(g70
g51
NtRp1743
(dp1744
g54
(dp1745
g81
g82
ssg63
g1734
sg56
(lp1746
S':'
asbag49
(g70
g51
NtRp1747
(dp1748
g54
(dp1749
sg63
g1734
sg56
(lp1750
g49
(g50
g51
NtRp1751
(dp1752
g54
(dp1753
g62
I4
ssg63
g1747
sg56
(lp1754
S'<class wsgiref.util.FileWrapper at 0x57d00c0>'
p1755
asbasbasbag49
(g65
g51
NtRp1756
(dp1757
g54
(dp1758
sg63
g944
sg56
(lp1759
g49
(g70
g51
NtRp1760
(dp1761
g54
(dp1762
g74
g75
ssg63
g1756
sg56
(lp1763
S'wsgi_input'
p1764
asbag49
(g70
g51
NtRp1765
(dp1766
g54
(dp1767
g81
g82
ssg63
g1756
sg56
(lp1768
S':'
asbag49
(g70
g51
NtRp1769
(dp1770
g54
(dp1771
sg63
g1756
sg56
(lp1772
g49
(g50
g51
NtRp1773
(dp1774
g54
(dp1775
g62
I4
ssg63
g1769
sg56
(lp1776
S'<socket._fileobject object at 0x8a7d270>'
p1777
asbasbasbag49
(g65
g51
NtRp1778
(dp1779
g54
(dp1780
sg63
g944
sg56
(lp1781
g49
(g70
g51
NtRp1782
(dp1783
g54
(dp1784
g74
g75
ssg63
g1778
sg56
(lp1785
S'wsgi_multiprocess'
p1786
asbag49
(g70
g51
NtRp1787
(dp1788
g54
(dp1789
g81
g82
ssg63
g1778
sg56
(lp1790
S':'
asbag49
(g70
g51
NtRp1791
(dp1792
g54
(dp1793
sg63
g1778
sg56
(lp1794
g49
(g50
g51
NtRp1795
(dp1796
g54
(dp1797
g62
I4
ssg63
g1791
sg56
(lp1798
g92
asbasbasbag49
(g65
g51
NtRp1799
(dp1800
g54
(dp1801
sg63
g944
sg56
(lp1802
g49
(g70
g51
NtRp1803
(dp1804
g54
(dp1805
g74
g75
ssg63
g1799
sg56
(lp1806
S'wsgi_multithread'
p1807
asbag49
(g70
g51
NtRp1808
(dp1809
g54
(dp1810
g81
g82
ssg63
g1799
sg56
(lp1811
S':'
asbag49
(g70
g51
NtRp1812
(dp1813
g54
(dp1814
sg63
g1799
sg56
(lp1815
g49
(g50
g51
NtRp1816
(dp1817
g54
(dp1818
g62
I4
ssg63
g1812
sg56
(lp1819
S'True'
p1820
asbasbasbag49
(g65
g51
NtRp1821
(dp1822
g54
(dp1823
sg63
g944
sg56
(lp1824
g49
(g70
g51
NtRp1825
(dp1826
g54
(dp1827
g74
g75
ssg63
g1821
sg56
(lp1828
S'wsgi_run_once'
p1829
asbag49
(g70
g51
NtRp1830
(dp1831
g54
(dp1832
g81
g82
ssg63
g1821
sg56
(lp1833
S':'
asbag49
(g70
g51
NtRp1834
(dp1835
g54
(dp1836
sg63
g1821
sg56
(lp1837
g49
(g50
g51
NtRp1838
(dp1839
g54
(dp1840
g62
I4
ssg63
g1834
sg56
(lp1841
g92
asbasbasbag49
(g65
g51
NtRp1842
(dp1843
g54
(dp1844
sg63
g944
sg56
(lp1845
g49
(g70
g51
NtRp1846
(dp1847
g54
(dp1848
g74
g75
ssg63
g1842
sg56
(lp1849
S'wsgi_url_scheme'
p1850
asbag49
(g70
g51
NtRp1851
(dp1852
g54
(dp1853
g81
g82
ssg63
g1842
sg56
(lp1854
S':'
asbag49
(g70
g51
NtRp1855
(dp1856
g54
(dp1857
sg63
g1842
sg56
(lp1858
g49
(g50
g51
NtRp1859
(dp1860
g54
(dp1861
g62
I4
ssg63
g1855
sg56
(lp1862
S'http'
p1863
asbasbasbag49
(g65
g51
NtRp1864
(dp1865
g54
(dp1866
sg63
g944
sg56
(lp1867
g49
(g70
g51
NtRp1868
(dp1869
g54
(dp1870
g74
g75
ssg63
g1864
sg56
(lp1871
S'wsgi_version'
p1872
asbag49
(g70
g51
NtRp1873
(dp1874
g54
(dp1875
g81
g82
ssg63
g1864
sg56
(lp1876
S':'
asbag49
(g70
g51
NtRp1877
(dp1878
g54
(dp1879
sg63
g1864
sg56
(lp1880
g49
(g50
g51
NtRp1881
(dp1882
g54
(dp1883
g62
I4
ssg63
g1877
sg56
(lp1884
g49
(g58
g51
NtRp1885
(dp1886
g54
(dp1887
g62
I3
ssg63
Nsg56
(lp1888
g49
(g65
g51
NtRp1889
(dp1890
g54
(dp1891
sg63
g1885
sg56
(lp1892
g49
(g70
g51
NtRp1893
(dp1894
g54
(dp1895
sg63
g1889
sg56
(lp1896
g49
(g50
g51
NtRp1897
(dp1898
g54
(dp1899
g62
I3
ssg63
g1893
sg56
(lp1900
S'1'
asbasbasbag49
(g65
g51
NtRp1901
(dp1902
g54
(dp1903
sg63
g1885
sg56
(lp1904
g49
(g70
g51
NtRp1905
(dp1906
g54
(dp1907
sg63
g1901
sg56
(lp1908
g49
(g50
g51
NtRp1909
(dp1910
g54
(dp1911
g62
I3
ssg63
g1905
sg56
(lp1912
S'0'
asbasbasbasbasbasbasbasbasbasbasbag49
(g65
g51
NtRp1913
(dp1914
g54
(dp1915
sg63
g59
sg56
(lp1916
g49
(g70
g51
NtRp1917
(dp1918
g54
(dp1919
g74
g75
ssg63
g1913
sg56
(lp1920
S'extension'
p1921
asbag49
(g70
g51
NtRp1922
(dp1923
g54
(dp1924
g81
g82
ssg63
g1913
sg56
(lp1925
S':'
asbag49
(g70
g51
NtRp1926
(dp1927
g54
(dp1928
sg63
g1913
sg56
(lp1929
g49
(g50
g51
NtRp1930
(dp1931
g54
(dp1932
g62
I5
ssg63
g1926
sg56
(lp1933
S'html'
p1934
asbasbasbag49
(g65
g51
NtRp1935
(dp1936
g54
(dp1937
sg63
g59
sg56
(lp1938
g49
(g70
g51
NtRp1939
(dp1940
g54
(dp1941
g74
g75
ssg63
g1935
sg56
(lp1942
S'folder'
p1943
asbag49
(g70
g51
NtRp1944
(dp1945
g54
(dp1946
g81
g82
ssg63
g1935
sg56
(lp1947
S':'
asbag49
(g70
g51
NtRp1948
(dp1949
g54
(dp1950
sg63
g1935
sg56
(lp1951
g49
(g50
g51
NtRp1952
(dp1953
g54
(dp1954
g62
I5
ssg63
g1948
sg56
(lp1955
S'/Applications/web2py.app/Contents/Resources/applications/183_Project/'
p1956
asbasbasbag49
(g65
g51
NtRp1957
(dp1958
g54
(dp1959
sg63
g59
sg56
(lp1960
g49
(g70
g51
NtRp1961
(dp1962
g54
(dp1963
g74
g75
ssg63
g1957
sg56
(lp1964
S'function'
p1965
asbag49
(g70
g51
NtRp1966
(dp1967
g54
(dp1968
g81
g82
ssg63
g1957
sg56
(lp1969
S':'
asbag49
(g70
g51
NtRp1970
(dp1971
g54
(dp1972
sg63
g1957
sg56
(lp1973
g49
(g50
g51
NtRp1974
(dp1975
g54
(dp1976
g62
I5
ssg63
g1970
sg56
(lp1977
S'index'
p1978
asbasbasbag49
(g65
g51
NtRp1979
(dp1980
g54
(dp1981
sg63
g59
sg56
(lp1982
g49
(g70
g51
NtRp1983
(dp1984
g54
(dp1985
g74
g75
ssg63
g1979
sg56
(lp1986
S'get_vars'
p1987
asbag49
(g70
g51
NtRp1988
(dp1989
g54
(dp1990
g81
g82
ssg63
g1979
sg56
(lp1991
S':'
asbag49
(g70
g51
NtRp1992
(dp1993
g54
(dp1994
sg63
g1979
sg56
(lp1995
g49
(g50
g51
NtRp1996
(dp1997
g54
(dp1998
g62
I5
ssg63
g1992
sg56
(lp1999
g49
(g58
g51
NtRp2000
(dp2001
g54
(dp2002
g62
I4
ssg63
Nsg56
(lp2003
sbasbasbasbag49
(g65
g51
NtRp2004
(dp2005
g54
(dp2006
sg63
g59
sg56
(lp2007
g49
(g70
g51
NtRp2008
(dp2009
g54
(dp2010
g74
g75
ssg63
g2004
sg56
(lp2011
S'global_settings'
p2012
asbag49
(g70
g51
NtRp2013
(dp2014
g54
(dp2015
g81
g82
ssg63
g2004
sg56
(lp2016
S':'
asbag49
(g70
g51
NtRp2017
(dp2018
g54
(dp2019
sg63
g2004
sg56
(lp2020
g49
(g50
g51
NtRp2021
(dp2022
g54
(dp2023
g62
I5
ssg63
g2017
sg56
(lp2024
g49
(g58
g51
NtRp2025
(dp2026
g54
(dp2027
g62
I4
ssg63
Nsg56
(lp2028
g49
(g65
g51
NtRp2029
(dp2030
g54
(dp2031
sg63
g2025
sg56
(lp2032
g49
(g70
g51
NtRp2033
(dp2034
g54
(dp2035
g74
g75
ssg63
g2029
sg56
(lp2036
g956
asbag49
(g70
g51
NtRp2037
(dp2038
g54
(dp2039
g81
g82
ssg63
g2029
sg56
(lp2040
S':'
asbag49
(g70
g51
NtRp2041
(dp2042
g54
(dp2043
sg63
g2029
sg56
(lp2044
g49
(g50
g51
NtRp2045
(dp2046
g54
(dp2047
g62
I4
ssg63
g2041
sg56
(lp2048
S"set(['/Applications/web2py.app/Contents/Resources/applications/Project/', '/Applications/web2py.app/Contents/Resources/applications/hw2/', '/Applications/web2py.app/Contents/Resources/applications/admin/', '/Applications/web2py.app/Contents/Resources/applications/welcome/', '/Applications/web2py.app/Contents/Resources/applications/183_Project/'])"
p2049
asbasbasbag49
(g65
g51
NtRp2050
(dp2051
g54
(dp2052
sg63
g2025
sg56
(lp2053
g49
(g70
g51
NtRp2054
(dp2055
g54
(dp2056
g74
g75
ssg63
g2050
sg56
(lp2057
g978
asbag49
(g70
g51
NtRp2058
(dp2059
g54
(dp2060
g81
g82
ssg63
g2050
sg56
(lp2061
S':'
asbag49
(g70
g51
NtRp2062
(dp2063
g54
(dp2064
sg63
g2050
sg56
(lp2065
g49
(g50
g51
NtRp2066
(dp2067
g54
(dp2068
g62
I4
ssg63
g2062
sg56
(lp2069
g991
asbasbasbag49
(g65
g51
NtRp2070
(dp2071
g54
(dp2072
sg63
g2025
sg56
(lp2073
g49
(g70
g51
NtRp2074
(dp2075
g54
(dp2076
g74
g75
ssg63
g2070
sg56
(lp2077
g1000
asbag49
(g70
g51
NtRp2078
(dp2079
g54
(dp2080
g81
g82
ssg63
g2070
sg56
(lp2081
S':'
asbag49
(g70
g51
NtRp2082
(dp2083
g54
(dp2084
sg63
g2070
sg56
(lp2085
g49
(g50
g51
NtRp2086
(dp2087
g54
(dp2088
g62
I4
ssg63
g2082
sg56
(lp2089
g49
(g58
g51
NtRp2090
(dp2091
g54
(dp2092
g62
I3
ssg63
Nsg56
(lp2093
sbasbasbasbag49
(g65
g51
NtRp2094
(dp2095
g54
(dp2096
sg63
g2025
sg56
(lp2097
g49
(g70
g51
NtRp2098
(dp2099
g54
(dp2100
g74
g75
ssg63
g2094
sg56
(lp2101
g1025
asbag49
(g70
g51
NtRp2102
(dp2103
g54
(dp2104
g81
g82
ssg63
g2094
sg56
(lp2105
S':'
asbag49
(g70
g51
NtRp2106
(dp2107
g54
(dp2108
sg63
g2094
sg56
(lp2109
g49
(g50
g51
NtRp2110
(dp2111
g54
(dp2112
g62
I4
ssg63
g2106
sg56
(lp2113
S"<Values at 0x57f1918: {'verbose': False, 'ip': '127.0.0.1', 'with_scheduler': False, 'ips': ['10.0.0.2'], 'shutdown_timeout': 5, 'taskbar': False, 'port': 8000, 'maxthreads': None, 'softcron': False, 'server_name': 'Lukes-MacBook-Pro.local', 'bpython': False, 'nogui': False, 'nocron': False, 'extcron': False, 'run_system_tests': False, 'test': None, 'folder': '/Applications/web2py.app/Contents/Resources', 'config': '', 'import_models': False, 'winservice': '', 'shell': None, 'run': '', 'log_filename': 'httpserver.log', 'debuglevel': 30, 'args': [''], 'socket_timeout': 5, 'ssl_ca_certificate': None, 'scheduler': None, 'profiler_filename': None, 'ssl_private_key': '', 'scheduler_groups': None, 'password': '<ask>', 'request_queue_size': 5, 'ssl_certificate': '', 'cronjob': False, 'numthreads': None, 'quiet': False, 'interfaces': None, 'minthreads': None, 'timeout': 10, 'plain': False, 'nobanner': False, 'pid_filename': 'httpserver.pid'}>"
p2114
asbasbasbag49
(g65
g51
NtRp2115
(dp2116
g54
(dp2117
sg63
g2025
sg56
(lp2118
g49
(g70
g51
NtRp2119
(dp2120
g54
(dp2121
g74
g75
ssg63
g2115
sg56
(lp2122
g1047
asbag49
(g70
g51
NtRp2123
(dp2124
g54
(dp2125
g81
g82
ssg63
g2115
sg56
(lp2126
S':'
asbag49
(g70
g51
NtRp2127
(dp2128
g54
(dp2129
sg63
g2115
sg56
(lp2130
g49
(g50
g51
NtRp2131
(dp2132
g54
(dp2133
g62
I4
ssg63
g2127
sg56
(lp2134
S'set([])'
p2135
asbasbasbag49
(g65
g51
NtRp2136
(dp2137
g54
(dp2138
sg63
g2025
sg56
(lp2139
g49
(g70
g51
NtRp2140
(dp2141
g54
(dp2142
g74
g75
ssg63
g2136
sg56
(lp2143
g1069
asbag49
(g70
g51
NtRp2144
(dp2145
g54
(dp2146
g81
g82
ssg63
g2136
sg56
(lp2147
S':'
asbag49
(g70
g51
NtRp2148
(dp2149
g54
(dp2150
sg63
g2136
sg56
(lp2151
g49
(g50
g51
NtRp2152
(dp2153
g54
(dp2154
g62
I4
ssg63
g2148
sg56
(lp2155
g92
asbasbasbag49
(g65
g51
NtRp2156
(dp2157
g54
(dp2158
sg63
g2025
sg56
(lp2159
g49
(g70
g51
NtRp2160
(dp2161
g54
(dp2162
g74
g75
ssg63
g2156
sg56
(lp2163
g1090
asbag49
(g70
g51
NtRp2164
(dp2165
g54
(dp2166
g81
g82
ssg63
g2156
sg56
(lp2167
S':'
asbag49
(g70
g51
NtRp2168
(dp2169
g54
(dp2170
sg63
g2156
sg56
(lp2171
g49
(g50
g51
NtRp2172
(dp2173
g54
(dp2174
g62
I4
ssg63
g2168
sg56
(lp2175
g1103
asbasbasbag49
(g65
g51
NtRp2176
(dp2177
g54
(dp2178
sg63
g2025
sg56
(lp2179
g49
(g70
g51
NtRp2180
(dp2181
g54
(dp2182
g74
g75
ssg63
g2176
sg56
(lp2183
g1310
asbag49
(g70
g51
NtRp2184
(dp2185
g54
(dp2186
g81
g82
ssg63
g2176
sg56
(lp2187
S':'
asbag49
(g70
g51
NtRp2188
(dp2189
g54
(dp2190
sg63
g2176
sg56
(lp2191
g49
(g50
g51
NtRp2192
(dp2193
g54
(dp2194
g62
I4
ssg63
g2188
sg56
(lp2195
g92
asbasbasbag49
(g65
g51
NtRp2196
(dp2197
g54
(dp2198
sg63
g2025
sg56
(lp2199
g49
(g70
g51
NtRp2200
(dp2201
g54
(dp2202
g74
g75
ssg63
g2196
sg56
(lp2203
g1331
asbag49
(g70
g51
NtRp2204
(dp2205
g54
(dp2206
g81
g82
ssg63
g2196
sg56
(lp2207
S':'
asbag49
(g70
g51
NtRp2208
(dp2209
g54
(dp2210
sg63
g2196
sg56
(lp2211
g49
(g50
g51
NtRp2212
(dp2213
g54
(dp2214
g62
I4
ssg63
g2208
sg56
(lp2215
g92
asbasbasbag49
(g65
g51
NtRp2216
(dp2217
g54
(dp2218
sg63
g2025
sg56
(lp2219
g49
(g70
g51
NtRp2220
(dp2221
g54
(dp2222
g74
g75
ssg63
g2216
sg56
(lp2223
g1590
asbag49
(g70
g51
NtRp2224
(dp2225
g54
(dp2226
g81
g82
ssg63
g2216
sg56
(lp2227
S':'
asbag49
(g70
g51
NtRp2228
(dp2229
g54
(dp2230
sg63
g2216
sg56
(lp2231
g49
(g50
g51
NtRp2232
(dp2233
g54
(dp2234
g62
I4
ssg63
g2228
sg56
(lp2235
g1603
asbasbasbag49
(g65
g51
NtRp2236
(dp2237
g54
(dp2238
sg63
g2025
sg56
(lp2239
g49
(g70
g51
NtRp2240
(dp2241
g54
(dp2242
g74
g75
ssg63
g2236
sg56
(lp2243
g1633
asbag49
(g70
g51
NtRp2244
(dp2245
g54
(dp2246
g81
g82
ssg63
g2236
sg56
(lp2247
S':'
asbag49
(g70
g51
NtRp2248
(dp2249
g54
(dp2250
sg63
g2236
sg56
(lp2251
g49
(g50
g51
NtRp2252
(dp2253
g54
(dp2254
g62
I4
ssg63
g2248
sg56
(lp2255
g49
(g58
g51
NtRp2256
(dp2257
g54
(dp2258
g62
I3
ssg63
Nsg56
(lp2259
g49
(g65
g51
NtRp2260
(dp2261
g54
(dp2262
sg63
g2256
sg56
(lp2263
g49
(g70
g51
NtRp2264
(dp2265
g54
(dp2266
sg63
g2260
sg56
(lp2267
g49
(g50
g51
NtRp2268
(dp2269
g54
(dp2270
g62
I3
ssg63
g2264
sg56
(lp2271
S'2'
asbasbasbag49
(g65
g51
NtRp2272
(dp2273
g54
(dp2274
sg63
g2256
sg56
(lp2275
g49
(g70
g51
NtRp2276
(dp2277
g54
(dp2278
sg63
g2272
sg56
(lp2279
g49
(g50
g51
NtRp2280
(dp2281
g54
(dp2282
g62
I3
ssg63
g2276
sg56
(lp2283
S'0'
asbasbasbag49
(g65
g51
NtRp2284
(dp2285
g54
(dp2286
sg63
g2256
sg56
(lp2287
g49
(g70
g51
NtRp2288
(dp2289
g54
(dp2290
sg63
g2284
sg56
(lp2291
g49
(g50
g51
NtRp2292
(dp2293
g54
(dp2294
g62
I3
ssg63
g2288
sg56
(lp2295
S'9'
asbasbasbag49
(g65
g51
NtRp2296
(dp2297
g54
(dp2298
sg63
g2256
sg56
(lp2299
g49
(g70
g51
NtRp2300
(dp2301
g54
(dp2302
sg63
g2296
sg56
(lp2303
g49
(g50
g51
NtRp2304
(dp2305
g54
(dp2306
g62
I3
ssg63
g2300
sg56
(lp2307
S'datetime.datetime(2012, 9, 13, 23, 51, 30)'
p2308
asbasbasbag49
(g65
g51
NtRp2309
(dp2310
g54
(dp2311
sg63
g2256
sg56
(lp2312
g49
(g70
g51
NtRp2313
(dp2314
g54
(dp2315
sg63
g2309
sg56
(lp2316
g49
(g50
g51
NtRp2317
(dp2318
g54
(dp2319
g62
I3
ssg63
g2313
sg56
(lp2320
g1711
asbasbasbasbasbasbasbasbasbasbasbag49
(g65
g51
NtRp2321
(dp2322
g54
(dp2323
sg63
g59
sg56
(lp2324
g49
(g70
g51
NtRp2325
(dp2326
g54
(dp2327
g74
g75
ssg63
g2321
sg56
(lp2328
S'is_https'
p2329
asbag49
(g70
g51
NtRp2330
(dp2331
g54
(dp2332
g81
g82
ssg63
g2321
sg56
(lp2333
S':'
asbag49
(g70
g51
NtRp2334
(dp2335
g54
(dp2336
sg63
g2321
sg56
(lp2337
g49
(g50
g51
NtRp2338
(dp2339
g54
(dp2340
g62
I5
ssg63
g2334
sg56
(lp2341
g92
asbasbasbag49
(g65
g51
NtRp2342
(dp2343
g54
(dp2344
sg63
g59
sg56
(lp2345
g49
(g70
g51
NtRp2346
(dp2347
g54
(dp2348
g74
g75
ssg63
g2342
sg56
(lp2349
S'is_local'
p2350
asbag49
(g70
g51
NtRp2351
(dp2352
g54
(dp2353
g81
g82
ssg63
g2342
sg56
(lp2354
S':'
asbag49
(g70
g51
NtRp2355
(dp2356
g54
(dp2357
sg63
g2342
sg56
(lp2358
g49
(g50
g51
NtRp2359
(dp2360
g54
(dp2361
g62
I5
ssg63
g2355
sg56
(lp2362
g1820
asbasbasbag49
(g65
g51
NtRp2363
(dp2364
g54
(dp2365
sg63
g59
sg56
(lp2366
g49
(g70
g51
NtRp2367
(dp2368
g54
(dp2369
g74
g75
ssg63
g2363
sg56
(lp2370
S'is_restful'
p2371
asbag49
(g70
g51
NtRp2372
(dp2373
g54
(dp2374
g81
g82
ssg63
g2363
sg56
(lp2375
S':'
asbag49
(g70
g51
NtRp2376
(dp2377
g54
(dp2378
sg63
g2363
sg56
(lp2379
g49
(g50
g51
NtRp2380
(dp2381
g54
(dp2382
g62
I5
ssg63
g2376
sg56
(lp2383
g92
asbasbasbag49
(g65
g51
NtRp2384
(dp2385
g54
(dp2386
sg63
g59
sg56
(lp2387
g49
(g70
g51
NtRp2388
(dp2389
g54
(dp2390
g74
g75
ssg63
g2384
sg56
(lp2391
S'now'
p2392
asbag49
(g70
g51
NtRp2393
(dp2394
g54
(dp2395
g81
g82
ssg63
g2384
sg56
(lp2396
S':'
asbag49
(g70
g51
NtRp2397
(dp2398
g54
(dp2399
sg63
g2384
sg56
(lp2400
g49
(g50
g51
NtRp2401
(dp2402
g54
(dp2403
g62
I5
ssg63
g2397
sg56
(lp2404
S'datetime.datetime(2012, 10, 30, 16, 37, 3, 875471)'
p2405
asbasbasbag49
(g65
g51
NtRp2406
(dp2407
g54
(dp2408
sg63
g59
sg56
(lp2409
g49
(g70
g51
NtRp2410
(dp2411
g54
(dp2412
g74
g75
ssg63
g2406
sg56
(lp2413
S'post_vars'
p2414
asbag49
(g70
g51
NtRp2415
(dp2416
g54
(dp2417
g81
g82
ssg63
g2406
sg56
(lp2418
S':'
asbag49
(g70
g51
NtRp2419
(dp2420
g54
(dp2421
sg63
g2406
sg56
(lp2422
g49
(g50
g51
NtRp2423
(dp2424
g54
(dp2425
g62
I5
ssg63
g2419
sg56
(lp2426
g49
(g58
g51
NtRp2427
(dp2428
g54
(dp2429
g62
I4
ssg63
Nsg56
(lp2430
sbasbasbasbag49
(g65
g51
NtRp2431
(dp2432
g54
(dp2433
sg63
g59
sg56
(lp2434
g49
(g70
g51
NtRp2435
(dp2436
g54
(dp2437
g74
g75
ssg63
g2431
sg56
(lp2438
S'raw_args'
p2439
asbag49
(g70
g51
NtRp2440
(dp2441
g54
(dp2442
g81
g82
ssg63
g2431
sg56
(lp2443
S':'
asbag49
(g70
g51
NtRp2444
(dp2445
g54
(dp2446
sg63
g2431
sg56
(lp2447
g49
(g50
g51
NtRp2448
(dp2449
g54
(dp2450
g62
I5
ssg63
g2444
sg56
(lp2451
S'None'
p2452
asbasbasbag49
(g65
g51
NtRp2453
(dp2454
g54
(dp2455
sg63
g59
sg56
(lp2456
g49
(g70
g51
NtRp2457
(dp2458
g54
(dp2459
g74
g75
ssg63
g2453
sg56
(lp2460
S'raw_extension'
p2461
asbag49
(g70
g51
NtRp2462
(dp2463
g54
(dp2464
g81
g82
ssg63
g2453
sg56
(lp2465
S':'
asbag49
(g70
g51
NtRp2466
(dp2467
g54
(dp2468
sg63
g2453
sg56
(lp2469
g49
(g50
g51
NtRp2470
(dp2471
g54
(dp2472
g62
I5
ssg63
g2466
sg56
(lp2473
S'None'
p2474
asbasbasbag49
(g65
g51
NtRp2475
(dp2476
g54
(dp2477
sg63
g59
sg56
(lp2478
g49
(g70
g51
NtRp2479
(dp2480
g54
(dp2481
g74
g75
ssg63
g2475
sg56
(lp2482
S'url'
p2483
asbag49
(g70
g51
NtRp2484
(dp2485
g54
(dp2486
g81
g82
ssg63
g2475
sg56
(lp2487
S':'
asbag49
(g70
g51
NtRp2488
(dp2489
g54
(dp2490
sg63
g2475
sg56
(lp2491
g49
(g50
g51
NtRp2492
(dp2493
g54
(dp2494
g62
I5
ssg63
g2488
sg56
(lp2495
g1365
asbasbasbag49
(g65
g51
NtRp2496
(dp2497
g54
(dp2498
sg63
g59
sg56
(lp2499
g49
(g70
g51
NtRp2500
(dp2501
g54
(dp2502
g74
g75
ssg63
g2496
sg56
(lp2503
S'utcnow'
p2504
asbag49
(g70
g51
NtRp2505
(dp2506
g54
(dp2507
g81
g82
ssg63
g2496
sg56
(lp2508
S':'
asbag49
(g70
g51
NtRp2509
(dp2510
g54
(dp2511
sg63
g2496
sg56
(lp2512
g49
(g50
g51
NtRp2513
(dp2514
g54
(dp2515
g62
I5
ssg63
g2509
sg56
(lp2516
S'datetime.datetime(2012, 10, 30, 23, 37, 3, 875480)'
p2517
asbasbasbag49
(g65
g51
NtRp2518
(dp2519
g54
(dp2520
sg63
g59
sg56
(lp2521
g49
(g70
g51
NtRp2522
(dp2523
g54
(dp2524
g74
g75
ssg63
g2518
sg56
(lp2525
S'uuid'
p2526
asbag49
(g70
g51
NtRp2527
(dp2528
g54
(dp2529
g81
g82
ssg63
g2518
sg56
(lp2530
S':'
asbag49
(g70
g51
NtRp2531
(dp2532
g54
(dp2533
sg63
g2518
sg56
(lp2534
g49
(g50
g51
NtRp2535
(dp2536
g54
(dp2537
g62
I5
ssg63
g2531
sg56
(lp2538
S'183_Project/127.0.0.1.2012-10-30.16-37-03.21e304e5-4295-482d-8ecd-c61fe9c71c7b'
p2539
asbasbasbag49
(g65
g51
NtRp2540
(dp2541
g54
(dp2542
sg63
g59
sg56
(lp2543
g49
(g70
g51
NtRp2544
(dp2545
g54
(dp2546
g74
g75
ssg63
g2540
sg56
(lp2547
S'vars'
p2548
asbag49
(g70
g51
NtRp2549
(dp2550
g54
(dp2551
g81
g82
ssg63
g2540
sg56
(lp2552
S':'
asbag49
(g70
g51
NtRp2553
(dp2554
g54
(dp2555
sg63
g2540
sg56
(lp2556
g49
(g50
g51
NtRp2557
(dp2558
g54
(dp2559
g62
I5
ssg63
g2553
sg56
(lp2560
g49
(g58
g51
NtRp2561
(dp2562
g54
(dp2563
g62
I4
ssg63
Nsg56
(lp2564
sbasbasbasbag49
(g65
g51
NtRp2565
(dp2566
g54
(dp2567
sg63
g59
sg56
(lp2568
g49
(g70
g51
NtRp2569
(dp2570
g54
(dp2571
g74
g75
ssg63
g2565
sg56
(lp2572
S'wsgi'
p2573
asbag49
(g70
g51
NtRp2574
(dp2575
g54
(dp2576
g81
g82
ssg63
g2565
sg56
(lp2577
S':'
asbag49
(g70
g51
NtRp2578
(dp2579
g54
(dp2580
sg63
g2565
sg56
(lp2581
g49
(g50
g51
NtRp2582
(dp2583
g54
(dp2584
g62
I5
ssg63
g2578
sg56
(lp2585
g49
(g58
g51
NtRp2586
(dp2587
g54
(dp2588
g62
I4
ssg63
Nsg56
(lp2589
g49
(g65
g51
NtRp2590
(dp2591
g54
(dp2592
sg63
g2586
sg56
(lp2593
g49
(g70
g51
NtRp2594
(dp2595
g54
(dp2596
g74
g75
ssg63
g2590
sg56
(lp2597
S'environ'
p2598
asbag49
(g70
g51
NtRp2599
(dp2600
g54
(dp2601
g81
g82
ssg63
g2590
sg56
(lp2602
S':'
asbag49
(g70
g51
NtRp2603
(dp2604
g54
(dp2605
sg63
g2590
sg56
(lp2606
g49
(g50
g51
NtRp2607
(dp2608
g54
(dp2609
g62
I4
ssg63
g2603
sg56
(lp2610
g49
(g58
g51
NtRp2611
(dp2612
g54
(dp2613
g62
I3
ssg63
Nsg56
(lp2614
g49
(g65
g51
NtRp2615
(dp2616
g54
(dp2617
sg63
g2611
sg56
(lp2618
g49
(g70
g51
NtRp2619
(dp2620
g54
(dp2621
g74
g75
ssg63
g2615
sg56
(lp2622
S'HTTP_ACCEPT'
p2623
asbag49
(g70
g51
NtRp2624
(dp2625
g54
(dp2626
g81
g82
ssg63
g2615
sg56
(lp2627
S':'
asbag49
(g70
g51
NtRp2628
(dp2629
g54
(dp2630
sg63
g2615
sg56
(lp2631
g49
(g50
g51
NtRp2632
(dp2633
g54
(dp2634
g62
I3
ssg63
g2628
sg56
(lp2635
g1125
asbasbasbag49
(g65
g51
NtRp2636
(dp2637
g54
(dp2638
sg63
g2611
sg56
(lp2639
g49
(g70
g51
NtRp2640
(dp2641
g54
(dp2642
g74
g75
ssg63
g2636
sg56
(lp2643
S'HTTP_ACCEPT_CHARSET'
p2644
asbag49
(g70
g51
NtRp2645
(dp2646
g54
(dp2647
g81
g82
ssg63
g2636
sg56
(lp2648
S':'
asbag49
(g70
g51
NtRp2649
(dp2650
g54
(dp2651
sg63
g2636
sg56
(lp2652
g49
(g50
g51
NtRp2653
(dp2654
g54
(dp2655
g62
I3
ssg63
g2649
sg56
(lp2656
g1147
asbasbasbag49
(g65
g51
NtRp2657
(dp2658
g54
(dp2659
sg63
g2611
sg56
(lp2660
g49
(g70
g51
NtRp2661
(dp2662
g54
(dp2663
g74
g75
ssg63
g2657
sg56
(lp2664
S'HTTP_ACCEPT_ENCODING'
p2665
asbag49
(g70
g51
NtRp2666
(dp2667
g54
(dp2668
g81
g82
ssg63
g2657
sg56
(lp2669
S':'
asbag49
(g70
g51
NtRp2670
(dp2671
g54
(dp2672
sg63
g2657
sg56
(lp2673
g49
(g50
g51
NtRp2674
(dp2675
g54
(dp2676
g62
I3
ssg63
g2670
sg56
(lp2677
g1169
asbasbasbag49
(g65
g51
NtRp2678
(dp2679
g54
(dp2680
sg63
g2611
sg56
(lp2681
g49
(g70
g51
NtRp2682
(dp2683
g54
(dp2684
g74
g75
ssg63
g2678
sg56
(lp2685
S'HTTP_ACCEPT_LANGUAGE'
p2686
asbag49
(g70
g51
NtRp2687
(dp2688
g54
(dp2689
g81
g82
ssg63
g2678
sg56
(lp2690
S':'
asbag49
(g70
g51
NtRp2691
(dp2692
g54
(dp2693
sg63
g2678
sg56
(lp2694
g49
(g50
g51
NtRp2695
(dp2696
g54
(dp2697
g62
I3
ssg63
g2691
sg56
(lp2698
g1191
asbasbasbag49
(g65
g51
NtRp2699
(dp2700
g54
(dp2701
sg63
g2611
sg56
(lp2702
g49
(g70
g51
NtRp2703
(dp2704
g54
(dp2705
g74
g75
ssg63
g2699
sg56
(lp2706
S'HTTP_CONNECTION'
p2707
asbag49
(g70
g51
NtRp2708
(dp2709
g54
(dp2710
g81
g82
ssg63
g2699
sg56
(lp2711
S':'
asbag49
(g70
g51
NtRp2712
(dp2713
g54
(dp2714
sg63
g2699
sg56
(lp2715
g49
(g50
g51
NtRp2716
(dp2717
g54
(dp2718
g62
I3
ssg63
g2712
sg56
(lp2719
g1213
asbasbasbag49
(g65
g51
NtRp2720
(dp2721
g54
(dp2722
sg63
g2611
sg56
(lp2723
g49
(g70
g51
NtRp2724
(dp2725
g54
(dp2726
g74
g75
ssg63
g2720
sg56
(lp2727
S'HTTP_COOKIE'
p2728
asbag49
(g70
g51
NtRp2729
(dp2730
g54
(dp2731
g81
g82
ssg63
g2720
sg56
(lp2732
S':'
asbag49
(g70
g51
NtRp2733
(dp2734
g54
(dp2735
sg63
g2720
sg56
(lp2736
g49
(g50
g51
NtRp2737
(dp2738
g54
(dp2739
g62
I3
ssg63
g2733
sg56
(lp2740
g1235
asbasbasbag49
(g65
g51
NtRp2741
(dp2742
g54
(dp2743
sg63
g2611
sg56
(lp2744
g49
(g70
g51
NtRp2745
(dp2746
g54
(dp2747
g74
g75
ssg63
g2741
sg56
(lp2748
S'HTTP_HOST'
p2749
asbag49
(g70
g51
NtRp2750
(dp2751
g54
(dp2752
g81
g82
ssg63
g2741
sg56
(lp2753
S':'
asbag49
(g70
g51
NtRp2754
(dp2755
g54
(dp2756
sg63
g2741
sg56
(lp2757
g49
(g50
g51
NtRp2758
(dp2759
g54
(dp2760
g62
I3
ssg63
g2754
sg56
(lp2761
g1257
asbasbasbag49
(g65
g51
NtRp2762
(dp2763
g54
(dp2764
sg63
g2611
sg56
(lp2765
g49
(g70
g51
NtRp2766
(dp2767
g54
(dp2768
g74
g75
ssg63
g2762
sg56
(lp2769
S'HTTP_REFERER'
p2770
asbag49
(g70
g51
NtRp2771
(dp2772
g54
(dp2773
g81
g82
ssg63
g2762
sg56
(lp2774
S':'
asbag49
(g70
g51
NtRp2775
(dp2776
g54
(dp2777
sg63
g2762
sg56
(lp2778
g49
(g50
g51
NtRp2779
(dp2780
g54
(dp2781
g62
I3
ssg63
g2775
sg56
(lp2782
g1279
asbasbasbag49
(g65
g51
NtRp2783
(dp2784
g54
(dp2785
sg63
g2611
sg56
(lp2786
g49
(g70
g51
NtRp2787
(dp2788
g54
(dp2789
g74
g75
ssg63
g2783
sg56
(lp2790
S'HTTP_USER_AGENT'
p2791
asbag49
(g70
g51
NtRp2792
(dp2793
g54
(dp2794
g81
g82
ssg63
g2783
sg56
(lp2795
S':'
asbag49
(g70
g51
NtRp2796
(dp2797
g54
(dp2798
sg63
g2783
sg56
(lp2799
g49
(g50
g51
NtRp2800
(dp2801
g54
(dp2802
g62
I3
ssg63
g2796
sg56
(lp2803
g1301
asbasbasbag49
(g65
g51
NtRp2804
(dp2805
g54
(dp2806
sg63
g2611
sg56
(lp2807
g49
(g70
g51
NtRp2808
(dp2809
g54
(dp2810
g74
g75
ssg63
g2804
sg56
(lp2811
S'PATH_INFO'
p2812
asbag49
(g70
g51
NtRp2813
(dp2814
g54
(dp2815
g81
g82
ssg63
g2804
sg56
(lp2816
S':'
asbag49
(g70
g51
NtRp2817
(dp2818
g54
(dp2819
sg63
g2804
sg56
(lp2820
g49
(g50
g51
NtRp2821
(dp2822
g54
(dp2823
g62
I3
ssg63
g2817
sg56
(lp2824
g1365
asbasbasbag49
(g65
g51
NtRp2825
(dp2826
g54
(dp2827
sg63
g2611
sg56
(lp2828
g49
(g70
g51
NtRp2829
(dp2830
g54
(dp2831
g74
g75
ssg63
g2825
sg56
(lp2832
S'QUERY_STRING'
p2833
asbag49
(g70
g51
NtRp2834
(dp2835
g54
(dp2836
g81
g82
ssg63
g2825
sg56
(lp2837
S':'
asbag49
(g70
g51
NtRp2838
(dp2839
g54
(dp2840
sg63
g2825
sg56
(lp2841
g49
(g50
g51
NtRp2842
(dp2843
g54
(dp2844
g62
I3
ssg63
g2838
sg56
(lp2845
S''
asbasbasbag49
(g65
g51
NtRp2846
(dp2847
g54
(dp2848
sg63
g2611
sg56
(lp2849
g49
(g70
g51
NtRp2850
(dp2851
g54
(dp2852
g74
g75
ssg63
g2846
sg56
(lp2853
S'REMOTE_ADDR'
p2854
asbag49
(g70
g51
NtRp2855
(dp2856
g54
(dp2857
g81
g82
ssg63
g2846
sg56
(lp2858
S':'
asbag49
(g70
g51
NtRp2859
(dp2860
g54
(dp2861
sg63
g2846
sg56
(lp2862
g49
(g50
g51
NtRp2863
(dp2864
g54
(dp2865
g62
I3
ssg63
g2859
sg56
(lp2866
g204
asbasbasbag49
(g65
g51
NtRp2867
(dp2868
g54
(dp2869
sg63
g2611
sg56
(lp2870
g49
(g70
g51
NtRp2871
(dp2872
g54
(dp2873
g74
g75
ssg63
g2867
sg56
(lp2874
S'REMOTE_PORT'
p2875
asbag49
(g70
g51
NtRp2876
(dp2877
g54
(dp2878
g81
g82
ssg63
g2867
sg56
(lp2879
S':'
asbag49
(g70
g51
NtRp2880
(dp2881
g54
(dp2882
sg63
g2867
sg56
(lp2883
g49
(g50
g51
NtRp2884
(dp2885
g54
(dp2886
g62
I3
ssg63
g2880
sg56
(lp2887
g1429
asbasbasbag49
(g65
g51
NtRp2888
(dp2889
g54
(dp2890
sg63
g2611
sg56
(lp2891
g49
(g70
g51
NtRp2892
(dp2893
g54
(dp2894
g74
g75
ssg63
g2888
sg56
(lp2895
S'REQUEST_METHOD'
p2896
asbag49
(g70
g51
NtRp2897
(dp2898
g54
(dp2899
g81
g82
ssg63
g2888
sg56
(lp2900
S':'
asbag49
(g70
g51
NtRp2901
(dp2902
g54
(dp2903
sg63
g2888
sg56
(lp2904
g49
(g50
g51
NtRp2905
(dp2906
g54
(dp2907
g62
I3
ssg63
g2901
sg56
(lp2908
g1451
asbasbasbag49
(g65
g51
NtRp2909
(dp2910
g54
(dp2911
sg63
g2611
sg56
(lp2912
g49
(g70
g51
NtRp2913
(dp2914
g54
(dp2915
g74
g75
ssg63
g2909
sg56
(lp2916
S'REQUEST_URI'
p2917
asbag49
(g70
g51
NtRp2918
(dp2919
g54
(dp2920
g81
g82
ssg63
g2909
sg56
(lp2921
S':'
asbag49
(g70
g51
NtRp2922
(dp2923
g54
(dp2924
sg63
g2909
sg56
(lp2925
g49
(g50
g51
NtRp2926
(dp2927
g54
(dp2928
g62
I3
ssg63
g2922
sg56
(lp2929
g1365
asbasbasbag49
(g65
g51
NtRp2930
(dp2931
g54
(dp2932
sg63
g2611
sg56
(lp2933
g49
(g70
g51
NtRp2934
(dp2935
g54
(dp2936
g74
g75
ssg63
g2930
sg56
(lp2937
S'SCRIPT_NAME'
p2938
asbag49
(g70
g51
NtRp2939
(dp2940
g54
(dp2941
g81
g82
ssg63
g2930
sg56
(lp2942
S':'
asbag49
(g70
g51
NtRp2943
(dp2944
g54
(dp2945
sg63
g2930
sg56
(lp2946
g49
(g50
g51
NtRp2947
(dp2948
g54
(dp2949
g62
I3
ssg63
g2943
sg56
(lp2950
S''
asbasbasbag49
(g65
g51
NtRp2951
(dp2952
g54
(dp2953
sg63
g2611
sg56
(lp2954
g49
(g70
g51
NtRp2955
(dp2956
g54
(dp2957
g74
g75
ssg63
g2951
sg56
(lp2958
S'SERVER_NAME'
p2959
asbag49
(g70
g51
NtRp2960
(dp2961
g54
(dp2962
g81
g82
ssg63
g2951
sg56
(lp2963
S':'
asbag49
(g70
g51
NtRp2964
(dp2965
g54
(dp2966
sg63
g2951
sg56
(lp2967
g49
(g50
g51
NtRp2968
(dp2969
g54
(dp2970
g62
I3
ssg63
g2964
sg56
(lp2971
g1515
asbasbasbag49
(g65
g51
NtRp2972
(dp2973
g54
(dp2974
sg63
g2611
sg56
(lp2975
g49
(g70
g51
NtRp2976
(dp2977
g54
(dp2978
g74
g75
ssg63
g2972
sg56
(lp2979
S'SERVER_PORT'
p2980
asbag49
(g70
g51
NtRp2981
(dp2982
g54
(dp2983
g81
g82
ssg63
g2972
sg56
(lp2984
S':'
asbag49
(g70
g51
NtRp2985
(dp2986
g54
(dp2987
sg63
g2972
sg56
(lp2988
g49
(g50
g51
NtRp2989
(dp2990
g54
(dp2991
g62
I3
ssg63
g2985
sg56
(lp2992
g1537
asbasbasbag49
(g65
g51
NtRp2993
(dp2994
g54
(dp2995
sg63
g2611
sg56
(lp2996
g49
(g70
g51
NtRp2997
(dp2998
g54
(dp2999
g74
g75
ssg63
g2993
sg56
(lp3000
S'SERVER_PROTOCOL'
p3001
asbag49
(g70
g51
NtRp3002
(dp3003
g54
(dp3004
g81
g82
ssg63
g2993
sg56
(lp3005
S':'
asbag49
(g70
g51
NtRp3006
(dp3007
g54
(dp3008
sg63
g2993
sg56
(lp3009
g49
(g50
g51
NtRp3010
(dp3011
g54
(dp3012
g62
I3
ssg63
g3006
sg56
(lp3013
g1559
asbasbasbag49
(g65
g51
NtRp3014
(dp3015
g54
(dp3016
sg63
g2611
sg56
(lp3017
g49
(g70
g51
NtRp3018
(dp3019
g54
(dp3020
g74
g75
ssg63
g3014
sg56
(lp3021
S'SERVER_SOFTWARE'
p3022
asbag49
(g70
g51
NtRp3023
(dp3024
g54
(dp3025
g81
g82
ssg63
g3014
sg56
(lp3026
S':'
asbag49
(g70
g51
NtRp3027
(dp3028
g54
(dp3029
sg63
g3014
sg56
(lp3030
g49
(g50
g51
NtRp3031
(dp3032
g54
(dp3033
g62
I3
ssg63
g3027
sg56
(lp3034
g1581
asbasbasbag49
(g65
g51
NtRp3035
(dp3036
g54
(dp3037
sg63
g2611
sg56
(lp3038
g49
(g70
g51
NtRp3039
(dp3040
g54
(dp3041
g74
g75
ssg63
g3035
sg56
(lp3042
S'wsgi.errors'
p3043
asbag49
(g70
g51
NtRp3044
(dp3045
g54
(dp3046
g81
g82
ssg63
g3035
sg56
(lp3047
S':'
asbag49
(g70
g51
NtRp3048
(dp3049
g54
(dp3050
sg63
g3035
sg56
(lp3051
g49
(g50
g51
NtRp3052
(dp3053
g54
(dp3054
g62
I3
ssg63
g3048
sg56
(lp3055
S"<open file '<stderr>', mode 'w' at 0x750b0>"
p3056
asbasbasbag49
(g65
g51
NtRp3057
(dp3058
g54
(dp3059
sg63
g2611
sg56
(lp3060
g49
(g70
g51
NtRp3061
(dp3062
g54
(dp3063
g74
g75
ssg63
g3057
sg56
(lp3064
S'wsgi.file_wrapper'
p3065
asbag49
(g70
g51
NtRp3066
(dp3067
g54
(dp3068
g81
g82
ssg63
g3057
sg56
(lp3069
S':'
asbag49
(g70
g51
NtRp3070
(dp3071
g54
(dp3072
sg63
g3057
sg56
(lp3073
g49
(g50
g51
NtRp3074
(dp3075
g54
(dp3076
g62
I3
ssg63
g3070
sg56
(lp3077
S'<class wsgiref.util.FileWrapper at 0x57d00c0>'
p3078
asbasbasbag49
(g65
g51
NtRp3079
(dp3080
g54
(dp3081
sg63
g2611
sg56
(lp3082
g49
(g70
g51
NtRp3083
(dp3084
g54
(dp3085
g74
g75
ssg63
g3079
sg56
(lp3086
S'wsgi.input'
p3087
asbag49
(g70
g51
NtRp3088
(dp3089
g54
(dp3090
g81
g82
ssg63
g3079
sg56
(lp3091
S':'
asbag49
(g70
g51
NtRp3092
(dp3093
g54
(dp3094
sg63
g3079
sg56
(lp3095
g49
(g50
g51
NtRp3096
(dp3097
g54
(dp3098
g62
I3
ssg63
g3092
sg56
(lp3099
S'<cStringIO.StringO object at 0xa8039a0>'
p3100
asbasbasbag49
(g65
g51
NtRp3101
(dp3102
g54
(dp3103
sg63
g2611
sg56
(lp3104
g49
(g70
g51
NtRp3105
(dp3106
g54
(dp3107
g74
g75
ssg63
g3101
sg56
(lp3108
S'wsgi.multiprocess'
p3109
asbag49
(g70
g51
NtRp3110
(dp3111
g54
(dp3112
g81
g82
ssg63
g3101
sg56
(lp3113
S':'
asbag49
(g70
g51
NtRp3114
(dp3115
g54
(dp3116
sg63
g3101
sg56
(lp3117
g49
(g50
g51
NtRp3118
(dp3119
g54
(dp3120
g62
I3
ssg63
g3114
sg56
(lp3121
g92
asbasbasbag49
(g65
g51
NtRp3122
(dp3123
g54
(dp3124
sg63
g2611
sg56
(lp3125
g49
(g70
g51
NtRp3126
(dp3127
g54
(dp3128
g74
g75
ssg63
g3122
sg56
(lp3129
S'wsgi.multithread'
p3130
asbag49
(g70
g51
NtRp3131
(dp3132
g54
(dp3133
g81
g82
ssg63
g3122
sg56
(lp3134
S':'
asbag49
(g70
g51
NtRp3135
(dp3136
g54
(dp3137
sg63
g3122
sg56
(lp3138
g49
(g50
g51
NtRp3139
(dp3140
g54
(dp3141
g62
I3
ssg63
g3135
sg56
(lp3142
g1820
asbasbasbag49
(g65
g51
NtRp3143
(dp3144
g54
(dp3145
sg63
g2611
sg56
(lp3146
g49
(g70
g51
NtRp3147
(dp3148
g54
(dp3149
g74
g75
ssg63
g3143
sg56
(lp3150
S'wsgi.run_once'
p3151
asbag49
(g70
g51
NtRp3152
(dp3153
g54
(dp3154
g81
g82
ssg63
g3143
sg56
(lp3155
S':'
asbag49
(g70
g51
NtRp3156
(dp3157
g54
(dp3158
sg63
g3143
sg56
(lp3159
g49
(g50
g51
NtRp3160
(dp3161
g54
(dp3162
g62
I3
ssg63
g3156
sg56
(lp3163
g92
asbasbasbag49
(g65
g51
NtRp3164
(dp3165
g54
(dp3166
sg63
g2611
sg56
(lp3167
g49
(g70
g51
NtRp3168
(dp3169
g54
(dp3170
g74
g75
ssg63
g3164
sg56
(lp3171
S'wsgi.url_scheme'
p3172
asbag49
(g70
g51
NtRp3173
(dp3174
g54
(dp3175
g81
g82
ssg63
g3164
sg56
(lp3176
S':'
asbag49
(g70
g51
NtRp3177
(dp3178
g54
(dp3179
sg63
g3164
sg56
(lp3180
g49
(g50
g51
NtRp3181
(dp3182
g54
(dp3183
g62
I3
ssg63
g3177
sg56
(lp3184
g1863
asbasbasbag49
(g65
g51
NtRp3185
(dp3186
g54
(dp3187
sg63
g2611
sg56
(lp3188
g49
(g70
g51
NtRp3189
(dp3190
g54
(dp3191
g74
g75
ssg63
g3185
sg56
(lp3192
S'wsgi.version'
p3193
asbag49
(g70
g51
NtRp3194
(dp3195
g54
(dp3196
g81
g82
ssg63
g3185
sg56
(lp3197
S':'
asbag49
(g70
g51
NtRp3198
(dp3199
g54
(dp3200
sg63
g3185
sg56
(lp3201
g49
(g50
g51
NtRp3202
(dp3203
g54
(dp3204
g62
I3
ssg63
g3198
sg56
(lp3205
S'1'
asbasbasbasbasbasbasbasbasbasbasbasbasbsS'frames'
p3206
(lp3207
(dp3208
S'file'
p3209
S'/Applications/web2py.app/Contents/Resources/gluon/restricted.py'
p3210
sS'dump'
p3211
(dp3212
sS'lnum'
p3213
I209
sS'lines'
p3214
(dp3215
sS'call'
p3216
S'(code="db.define_table(\'clinics\',\\n    Field(\'user\', db....t be valid phone number (of form xxx-xxx-xxxx)\')\\n", environment={\'A\': <class \'gluon.html.A\'>, \'B\': <class \'gluon.html.B\'>, \'BEAUTIFY\': <class \'gluon.html.BEAUTIFY\'>, \'BODY\': <class \'gluon.html.BODY\'>, \'BR\': <class \'gluon.html.BR\'>, \'BUTTON\': <class \'gluon.html.BUTTON\'>, \'CAT\': <class \'gluon.html.CAT\'>, \'CENTER\': <class \'gluon.html.CENTER\'>, \'CLEANUP\': <class \'gluon.validators.CLEANUP\'>, \'CODE\': <class \'gluon.html.CODE\'>, ...}, layer=\'/Applications/web2py.app/Contents/Resources/applications/183_Project/models/clinic.py\')'
p3217
sS'func'
p3218
S'restricted'
p3219
sa(dp3220
g3209
S'/Applications/web2py.app/Contents/Resources/applications/183_Project/models/clinic.py'
p3221
sg3211
(dp3222
sg3213
I1
sg3214
(dp3223
I2
S"    Field('user', db.auth_user, default=auth.user_id),"
p3224
sI3
S"    Field('name', 'string', required=True),"
p3225
sI4
S"    Field('image', 'upload'),"
p3226
sI5
S"    Field('email', 'string'),"
p3227
sI6
S"    Field('phone', 'string'),"
p3228
sI7
S"    Field('address', 'string'),"
p3229
sI8
S"    Field('description', 'text'),"
p3230
sI9
S"    format='%(name)s'"
p3231
sI10
S'    )'
p3232
sI11
S''
ssg3216
S'()'
p3233
sg3218
S'<module>'
p3234
sasS'pyver'
p3235
S'Python 2.5.1: /Applications/web2py.app/Contents/MacOS/python'
p3236
sS'session'
p3237
g49
(g50
g51
NtRp3238
(dp3239
g54
(dp3240
sg56
(lp3241
g49
(g58
g51
NtRp3242
(dp3243
g54
(dp3244
g62
I5
ssg63
Nsg56
(lp3245
sbasbsS'etype'
p3246
S"<type 'exceptions.NameError'>"
p3247
sS'date'
p3248
S'Tue Oct 30 16:37:04 2012'
p3249
sS'response'
p3250
g49
(g50
g51
NtRp3251
(dp3252
g54
(dp3253
sg56
(lp3254
g49
(g58
g51
NtRp3255
(dp3256
g54
(dp3257
g62
I5
ssg63
Nsg56
(lp3258
g49
(g65
g51
NtRp3259
(dp3260
g54
(dp3261
sg63
g3255
sg56
(lp3262
g49
(g70
g51
NtRp3263
(dp3264
g54
(dp3265
g74
g75
ssg63
g3259
sg56
(lp3266
g147
asbag49
(g70
g51
NtRp3267
(dp3268
g54
(dp3269
g81
g82
ssg63
g3259
sg56
(lp3270
S':'
asbag49
(g70
g51
NtRp3271
(dp3272
g54
(dp3273
sg63
g3259
sg56
(lp3274
g49
(g50
g51
NtRp3275
(dp3276
g54
(dp3277
g62
I5
ssg63
g3271
sg56
(lp3278
S'<cStringIO.StringO object at 0xa803120>'
p3279
asbasbasbag49
(g65
g51
NtRp3280
(dp3281
g54
(dp3282
sg63
g3255
sg56
(lp3283
g49
(g70
g51
NtRp3284
(dp3285
g54
(dp3286
g74
g75
ssg63
g3280
sg56
(lp3287
g235
asbag49
(g70
g51
NtRp3288
(dp3289
g54
(dp3290
g81
g82
ssg63
g3280
sg56
(lp3291
S':'
asbag49
(g70
g51
NtRp3292
(dp3293
g54
(dp3294
sg63
g3280
sg56
(lp3295
g49
(g50
g51
NtRp3296
(dp3297
g54
(dp3298
g62
I5
ssg63
g3292
sg56
(lp3299
g49
(g58
g51
NtRp3300
(dp3301
g54
(dp3302
g62
I4
ssg63
Nsg56
(lp3303
g49
(g65
g51
NtRp3304
(dp3305
g54
(dp3306
sg63
g3300
sg56
(lp3307
g49
(g70
g51
NtRp3308
(dp3309
g54
(dp3310
g74
g75
ssg63
g3304
sg56
(lp3311
S'session_id_183_project'
p3312
asbag49
(g70
g51
NtRp3313
(dp3314
g54
(dp3315
g81
g82
ssg63
g3304
sg56
(lp3316
S':'
asbag49
(g70
g51
NtRp3317
(dp3318
g54
(dp3319
sg63
g3304
sg56
(lp3320
g49
(g50
g51
NtRp3321
(dp3322
g54
(dp3323
g62
I4
ssg63
g3317
sg56
(lp3324
S'127.0.0.1-62691e03-38c4-44be-a67e-03c575530bbd'
p3325
ag49
(g58
g51
NtRp3326
(dp3327
g54
(dp3328
g62
I3
ssg63
Nsg56
(lp3329
g49
(g65
g51
NtRp3330
(dp3331
g54
(dp3332
sg63
g3326
sg56
(lp3333
g49
(g70
g51
NtRp3334
(dp3335
g54
(dp3336
g74
g75
ssg63
g3330
sg56
(lp3337
g286
asbag49
(g70
g51
NtRp3338
(dp3339
g54
(dp3340
g81
g82
ssg63
g3330
sg56
(lp3341
S':'
asbag49
(g70
g51
NtRp3342
(dp3343
g54
(dp3344
sg63
g3330
sg56
(lp3345
g49
(g50
g51
NtRp3346
(dp3347
g54
(dp3348
g62
I3
ssg63
g3342
sg56
(lp3349
S''
asbasbasbag49
(g65
g51
NtRp3350
(dp3351
g54
(dp3352
sg63
g3326
sg56
(lp3353
g49
(g70
g51
NtRp3354
(dp3355
g54
(dp3356
g74
g75
ssg63
g3350
sg56
(lp3357
g307
asbag49
(g70
g51
NtRp3358
(dp3359
g54
(dp3360
g81
g82
ssg63
g3350
sg56
(lp3361
S':'
asbag49
(g70
g51
NtRp3362
(dp3363
g54
(dp3364
sg63
g3350
sg56
(lp3365
g49
(g50
g51
NtRp3366
(dp3367
g54
(dp3368
g62
I3
ssg63
g3362
sg56
(lp3369
S''
asbasbasbag49
(g65
g51
NtRp3370
(dp3371
g54
(dp3372
sg63
g3326
sg56
(lp3373
g49
(g70
g51
NtRp3374
(dp3375
g54
(dp3376
g74
g75
ssg63
g3370
sg56
(lp3377
g328
asbag49
(g70
g51
NtRp3378
(dp3379
g54
(dp3380
g81
g82
ssg63
g3370
sg56
(lp3381
S':'
asbag49
(g70
g51
NtRp3382
(dp3383
g54
(dp3384
sg63
g3370
sg56
(lp3385
g49
(g50
g51
NtRp3386
(dp3387
g54
(dp3388
g62
I3
ssg63
g3382
sg56
(lp3389
S''
asbasbasbag49
(g65
g51
NtRp3390
(dp3391
g54
(dp3392
sg63
g3326
sg56
(lp3393
g49
(g70
g51
NtRp3394
(dp3395
g54
(dp3396
g74
g75
ssg63
g3390
sg56
(lp3397
g349
asbag49
(g70
g51
NtRp3398
(dp3399
g54
(dp3400
g81
g82
ssg63
g3390
sg56
(lp3401
S':'
asbag49
(g70
g51
NtRp3402
(dp3403
g54
(dp3404
sg63
g3390
sg56
(lp3405
g49
(g50
g51
NtRp3406
(dp3407
g54
(dp3408
g62
I3
ssg63
g3402
sg56
(lp3409
S''
asbasbasbag49
(g65
g51
NtRp3410
(dp3411
g54
(dp3412
sg63
g3326
sg56
(lp3413
g49
(g70
g51
NtRp3414
(dp3415
g54
(dp3416
g74
g75
ssg63
g3410
sg56
(lp3417
g370
asbag49
(g70
g51
NtRp3418
(dp3419
g54
(dp3420
g81
g82
ssg63
g3410
sg56
(lp3421
S':'
asbag49
(g70
g51
NtRp3422
(dp3423
g54
(dp3424
sg63
g3410
sg56
(lp3425
g49
(g50
g51
NtRp3426
(dp3427
g54
(dp3428
g62
I3
ssg63
g3422
sg56
(lp3429
S'/'
asbasbasbag49
(g65
g51
NtRp3430
(dp3431
g54
(dp3432
sg63
g3326
sg56
(lp3433
g49
(g70
g51
NtRp3434
(dp3435
g54
(dp3436
g74
g75
ssg63
g3430
sg56
(lp3437
g391
asbag49
(g70
g51
NtRp3438
(dp3439
g54
(dp3440
g81
g82
ssg63
g3430
sg56
(lp3441
S':'
asbag49
(g70
g51
NtRp3442
(dp3443
g54
(dp3444
sg63
g3430
sg56
(lp3445
g49
(g50
g51
NtRp3446
(dp3447
g54
(dp3448
g62
I3
ssg63
g3442
sg56
(lp3449
S''
asbasbasbag49
(g65
g51
NtRp3450
(dp3451
g54
(dp3452
sg63
g3326
sg56
(lp3453
g49
(g70
g51
NtRp3454
(dp3455
g54
(dp3456
g74
g75
ssg63
g3450
sg56
(lp3457
g412
asbag49
(g70
g51
NtRp3458
(dp3459
g54
(dp3460
g81
g82
ssg63
g3450
sg56
(lp3461
S':'
asbag49
(g70
g51
NtRp3462
(dp3463
g54
(dp3464
sg63
g3450
sg56
(lp3465
g49
(g50
g51
NtRp3466
(dp3467
g54
(dp3468
g62
I3
ssg63
g3462
sg56
(lp3469
S''
asbasbasbasbasbasbasbasbasbasbasbag49
(g65
g51
NtRp3470
(dp3471
g54
(dp3472
sg63
g3255
sg56
(lp3473
g49
(g70
g51
NtRp3474
(dp3475
g54
(dp3476
g74
g75
ssg63
g3470
sg56
(lp3477
S'delimiters'
p3478
asbag49
(g70
g51
NtRp3479
(dp3480
g54
(dp3481
g81
g82
ssg63
g3470
sg56
(lp3482
S':'
asbag49
(g70
g51
NtRp3483
(dp3484
g54
(dp3485
sg63
g3470
sg56
(lp3486
g49
(g50
g51
NtRp3487
(dp3488
g54
(dp3489
g62
I5
ssg63
g3483
sg56
(lp3490
g49
(g58
g51
NtRp3491
(dp3492
g54
(dp3493
g62
I4
ssg63
Nsg56
(lp3494
g49
(g65
g51
NtRp3495
(dp3496
g54
(dp3497
sg63
g3491
sg56
(lp3498
g49
(g70
g51
NtRp3499
(dp3500
g54
(dp3501
sg63
g3495
sg56
(lp3502
g49
(g50
g51
NtRp3503
(dp3504
g54
(dp3505
g62
I4
ssg63
g3499
sg56
(lp3506
S'{{'
p3507
asbasbasbag49
(g65
g51
NtRp3508
(dp3509
g54
(dp3510
sg63
g3491
sg56
(lp3511
g49
(g70
g51
NtRp3512
(dp3513
g54
(dp3514
sg63
g3508
sg56
(lp3515
g49
(g50
g51
NtRp3516
(dp3517
g54
(dp3518
g62
I4
ssg63
g3512
sg56
(lp3519
S'}}'
p3520
asbasbasbasbasbasbasbag49
(g65
g51
NtRp3521
(dp3522
g54
(dp3523
sg63
g3255
sg56
(lp3524
g49
(g70
g51
NtRp3525
(dp3526
g54
(dp3527
g74
g75
ssg63
g3521
sg56
(lp3528
S'files'
p3529
asbag49
(g70
g51
NtRp3530
(dp3531
g54
(dp3532
g81
g82
ssg63
g3521
sg56
(lp3533
S':'
asbag49
(g70
g51
NtRp3534
(dp3535
g54
(dp3536
sg63
g3521
sg56
(lp3537
g49
(g50
g51
NtRp3538
(dp3539
g54
(dp3540
g62
I5
ssg63
g3534
sg56
(lp3541
g49
(g58
g51
NtRp3542
(dp3543
g54
(dp3544
g62
I4
ssg63
Nsg56
(lp3545
sbasbasbasbag49
(g65
g51
NtRp3546
(dp3547
g54
(dp3548
sg63
g3255
sg56
(lp3549
g49
(g70
g51
NtRp3550
(dp3551
g54
(dp3552
g74
g75
ssg63
g3546
sg56
(lp3553
S'flash'
p3554
asbag49
(g70
g51
NtRp3555
(dp3556
g54
(dp3557
g81
g82
ssg63
g3546
sg56
(lp3558
S':'
asbag49
(g70
g51
NtRp3559
(dp3560
g54
(dp3561
sg63
g3546
sg56
(lp3562
g49
(g50
g51
NtRp3563
(dp3564
g54
(dp3565
g62
I5
ssg63
g3559
sg56
(lp3566
S''
asbasbasbag49
(g65
g51
NtRp3567
(dp3568
g54
(dp3569
sg63
g3255
sg56
(lp3570
g49
(g70
g51
NtRp3571
(dp3572
g54
(dp3573
g74
g75
ssg63
g3567
sg56
(lp3574
S'generic_patterns'
p3575
asbag49
(g70
g51
NtRp3576
(dp3577
g54
(dp3578
g81
g82
ssg63
g3567
sg56
(lp3579
S':'
asbag49
(g70
g51
NtRp3580
(dp3581
g54
(dp3582
sg63
g3567
sg56
(lp3583
g49
(g50
g51
NtRp3584
(dp3585
g54
(dp3586
g62
I5
ssg63
g3580
sg56
(lp3587
g49
(g58
g51
NtRp3588
(dp3589
g54
(dp3590
g62
I4
ssg63
Nsg56
(lp3591
sbasbasbasbag49
(g65
g51
NtRp3592
(dp3593
g54
(dp3594
sg63
g3255
sg56
(lp3595
g49
(g70
g51
NtRp3596
(dp3597
g54
(dp3598
g74
g75
ssg63
g3592
sg56
(lp3599
S'headers'
p3600
asbag49
(g70
g51
NtRp3601
(dp3602
g54
(dp3603
g81
g82
ssg63
g3592
sg56
(lp3604
S':'
asbag49
(g70
g51
NtRp3605
(dp3606
g54
(dp3607
sg63
g3592
sg56
(lp3608
g49
(g50
g51
NtRp3609
(dp3610
g54
(dp3611
g62
I5
ssg63
g3605
sg56
(lp3612
g49
(g58
g51
NtRp3613
(dp3614
g54
(dp3615
g62
I4
ssg63
Nsg56
(lp3616
g49
(g65
g51
NtRp3617
(dp3618
g54
(dp3619
sg63
g3613
sg56
(lp3620
g49
(g70
g51
NtRp3621
(dp3622
g54
(dp3623
g74
g75
ssg63
g3617
sg56
(lp3624
S'X-Powered-By'
p3625
asbag49
(g70
g51
NtRp3626
(dp3627
g54
(dp3628
g81
g82
ssg63
g3617
sg56
(lp3629
S':'
asbag49
(g70
g51
NtRp3630
(dp3631
g54
(dp3632
sg63
g3617
sg56
(lp3633
g49
(g50
g51
NtRp3634
(dp3635
g54
(dp3636
g62
I4
ssg63
g3630
sg56
(lp3637
S'web2py'
p3638
asbasbasbasbasbasbasbag49
(g65
g51
NtRp3639
(dp3640
g54
(dp3641
sg63
g3255
sg56
(lp3642
g49
(g70
g51
NtRp3643
(dp3644
g54
(dp3645
g74
g75
ssg63
g3639
sg56
(lp3646
S'menu'
p3647
asbag49
(g70
g51
NtRp3648
(dp3649
g54
(dp3650
g81
g82
ssg63
g3639
sg56
(lp3651
S':'
asbag49
(g70
g51
NtRp3652
(dp3653
g54
(dp3654
sg63
g3639
sg56
(lp3655
g49
(g50
g51
NtRp3656
(dp3657
g54
(dp3658
g62
I5
ssg63
g3652
sg56
(lp3659
g49
(g58
g51
NtRp3660
(dp3661
g54
(dp3662
g62
I4
ssg63
Nsg56
(lp3663
sbasbasbasbag49
(g65
g51
NtRp3664
(dp3665
g54
(dp3666
sg63
g3255
sg56
(lp3667
g49
(g70
g51
NtRp3668
(dp3669
g54
(dp3670
g74
g75
ssg63
g3664
sg56
(lp3671
S'meta'
p3672
asbag49
(g70
g51
NtRp3673
(dp3674
g54
(dp3675
g81
g82
ssg63
g3664
sg56
(lp3676
S':'
asbag49
(g70
g51
NtRp3677
(dp3678
g54
(dp3679
sg63
g3664
sg56
(lp3680
g49
(g50
g51
NtRp3681
(dp3682
g54
(dp3683
g62
I5
ssg63
g3677
sg56
(lp3684
g49
(g58
g51
NtRp3685
(dp3686
g54
(dp3687
g62
I4
ssg63
Nsg56
(lp3688
sbasbasbasbag49
(g65
g51
NtRp3689
(dp3690
g54
(dp3691
sg63
g3255
sg56
(lp3692
g49
(g70
g51
NtRp3693
(dp3694
g54
(dp3695
g74
g75
ssg63
g3689
sg56
(lp3696
S'models_to_run'
p3697
asbag49
(g70
g51
NtRp3698
(dp3699
g54
(dp3700
g81
g82
ssg63
g3689
sg56
(lp3701
S':'
asbag49
(g70
g51
NtRp3702
(dp3703
g54
(dp3704
sg63
g3689
sg56
(lp3705
g49
(g50
g51
NtRp3706
(dp3707
g54
(dp3708
g62
I5
ssg63
g3702
sg56
(lp3709
g49
(g58
g51
NtRp3710
(dp3711
g54
(dp3712
g62
I4
ssg63
Nsg56
(lp3713
g49
(g65
g51
NtRp3714
(dp3715
g54
(dp3716
sg63
g3710
sg56
(lp3717
g49
(g70
g51
NtRp3718
(dp3719
g54
(dp3720
sg63
g3714
sg56
(lp3721
g49
(g50
g51
NtRp3722
(dp3723
g54
(dp3724
g62
I4
ssg63
g3718
sg56
(lp3725
S'^\\w+\\.py$'
p3726
asbasbasbag49
(g65
g51
NtRp3727
(dp3728
g54
(dp3729
sg63
g3710
sg56
(lp3730
g49
(g70
g51
NtRp3731
(dp3732
g54
(dp3733
sg63
g3727
sg56
(lp3734
g49
(g50
g51
NtRp3735
(dp3736
g54
(dp3737
g62
I4
ssg63
g3731
sg56
(lp3738
S'^default/\\w+\\.py$'
p3739
asbasbasbag49
(g65
g51
NtRp3740
(dp3741
g54
(dp3742
sg63
g3710
sg56
(lp3743
g49
(g70
g51
NtRp3744
(dp3745
g54
(dp3746
sg63
g3740
sg56
(lp3747
g49
(g50
g51
NtRp3748
(dp3749
g54
(dp3750
g62
I4
ssg63
g3744
sg56
(lp3751
S'^default/index/\\w+\\.py$'
p3752
asbasbasbasbasbasbasbag49
(g65
g51
NtRp3753
(dp3754
g54
(dp3755
sg63
g3255
sg56
(lp3756
g49
(g70
g51
NtRp3757
(dp3758
g54
(dp3759
g74
g75
ssg63
g3753
sg56
(lp3760
S'postprocessing'
p3761
asbag49
(g70
g51
NtRp3762
(dp3763
g54
(dp3764
g81
g82
ssg63
g3753
sg56
(lp3765
S':'
asbag49
(g70
g51
NtRp3766
(dp3767
g54
(dp3768
sg63
g3753
sg56
(lp3769
g49
(g50
g51
NtRp3770
(dp3771
g54
(dp3772
g62
I5
ssg63
g3766
sg56
(lp3773
g49
(g58
g51
NtRp3774
(dp3775
g54
(dp3776
g62
I4
ssg63
Nsg56
(lp3777
sbasbasbasbag49
(g65
g51
NtRp3778
(dp3779
g54
(dp3780
sg63
g3255
sg56
(lp3781
g49
(g70
g51
NtRp3782
(dp3783
g54
(dp3784
g74
g75
ssg63
g3778
sg56
(lp3785
S'session_filename'
p3786
asbag49
(g70
g51
NtRp3787
(dp3788
g54
(dp3789
g81
g82
ssg63
g3778
sg56
(lp3790
S':'
asbag49
(g70
g51
NtRp3791
(dp3792
g54
(dp3793
sg63
g3778
sg56
(lp3794
g49
(g50
g51
NtRp3795
(dp3796
g54
(dp3797
g62
I5
ssg63
g3791
sg56
(lp3798
S'/Applications/web2py.app/Contents/Resources/applications/183_Project/sessions/127.0.0.1-62691e03-38c4-44be-a67e-03c575530bbd'
p3799
asbasbasbag49
(g65
g51
NtRp3800
(dp3801
g54
(dp3802
sg63
g3255
sg56
(lp3803
g49
(g70
g51
NtRp3804
(dp3805
g54
(dp3806
g74
g75
ssg63
g3800
sg56
(lp3807
S'session_id'
p3808
asbag49
(g70
g51
NtRp3809
(dp3810
g54
(dp3811
g81
g82
ssg63
g3800
sg56
(lp3812
S':'
asbag49
(g70
g51
NtRp3813
(dp3814
g54
(dp3815
sg63
g3800
sg56
(lp3816
g49
(g50
g51
NtRp3817
(dp3818
g54
(dp3819
g62
I5
ssg63
g3813
sg56
(lp3820
g3325
asbasbasbag49
(g65
g51
NtRp3821
(dp3822
g54
(dp3823
sg63
g3255
sg56
(lp3824
g49
(g70
g51
NtRp3825
(dp3826
g54
(dp3827
g74
g75
ssg63
g3821
sg56
(lp3828
S'session_id_name'
p3829
asbag49
(g70
g51
NtRp3830
(dp3831
g54
(dp3832
g81
g82
ssg63
g3821
sg56
(lp3833
S':'
asbag49
(g70
g51
NtRp3834
(dp3835
g54
(dp3836
sg63
g3821
sg56
(lp3837
g49
(g50
g51
NtRp3838
(dp3839
g54
(dp3840
g62
I5
ssg63
g3834
sg56
(lp3841
g3312
asbasbasbag49
(g65
g51
NtRp3842
(dp3843
g54
(dp3844
sg63
g3255
sg56
(lp3845
g49
(g70
g51
NtRp3846
(dp3847
g54
(dp3848
g74
g75
ssg63
g3842
sg56
(lp3849
S'session_new'
p3850
asbag49
(g70
g51
NtRp3851
(dp3852
g54
(dp3853
g81
g82
ssg63
g3842
sg56
(lp3854
S':'
asbag49
(g70
g51
NtRp3855
(dp3856
g54
(dp3857
sg63
g3842
sg56
(lp3858
g49
(g50
g51
NtRp3859
(dp3860
g54
(dp3861
g62
I5
ssg63
g3855
sg56
(lp3862
g1820
asbasbasbag49
(g65
g51
NtRp3863
(dp3864
g54
(dp3865
sg63
g3255
sg56
(lp3866
g49
(g70
g51
NtRp3867
(dp3868
g54
(dp3869
g74
g75
ssg63
g3863
sg56
(lp3870
S'status'
p3871
asbag49
(g70
g51
NtRp3872
(dp3873
g54
(dp3874
g81
g82
ssg63
g3863
sg56
(lp3875
S':'
asbag49
(g70
g51
NtRp3876
(dp3877
g54
(dp3878
sg63
g3863
sg56
(lp3879
g49
(g50
g51
NtRp3880
(dp3881
g54
(dp3882
g62
I5
ssg63
g3876
sg56
(lp3883
S'200'
p3884
asbasbasbag49
(g65
g51
NtRp3885
(dp3886
g54
(dp3887
sg63
g3255
sg56
(lp3888
g49
(g70
g51
NtRp3889
(dp3890
g54
(dp3891
g74
g75
ssg63
g3885
sg56
(lp3892
S'view'
p3893
asbag49
(g70
g51
NtRp3894
(dp3895
g54
(dp3896
g81
g82
ssg63
g3885
sg56
(lp3897
S':'
asbag49
(g70
g51
NtRp3898
(dp3899
g54
(dp3900
sg63
g3885
sg56
(lp3901
g49
(g50
g51
NtRp3902
(dp3903
g54
(dp3904
g62
I5
ssg63
g3898
sg56
(lp3905
S'default/index.html'
p3906
asbasbasbasbasbsS'locals'
p3907
(dp3908
S'OBJECT'
p3909
S"<class 'gluon.html.OBJECT'>"
p3910
sS'SQLDB'
p3911
S"<class 'gluon.dal.DAL'>"
p3912
sg3237
S"<Storage {'_Session__hash': '\\xc8[\\xd5\\xc1#\\xd8e\\x10\\xe3\\x06\\x0ba\\xddT\\x92m'}>"
p3913
sS'LINK'
p3914
S"<class 'gluon.html.LINK'>"
p3915
sS'BR'
p3916
S"<class 'gluon.html.BR'>"
p3917
sS'local_import'
p3918
S'<function <lambda> at 0xa91e1b0>'
p3919
sS'OPTGROUP'
p3920
S"<class 'gluon.html.OPTGROUP'>"
p3921
sS'PRE'
p3922
S"<class 'gluon.html.PRE'>"
p3923
sS'IS_INT_IN_RANGE'
p3924
S"<class 'gluon.validators.IS_INT_IN_RANGE'>"
p3925
sS'IS_LOWER'
p3926
S"<class 'gluon.validators.IS_LOWER'>"
p3927
sS'IS_STRONG'
p3928
S"<class 'gluon.validators.IS_STRONG'>"
p3929
sS'cache'
p3930
S'<gluon.cache.Cache object at 0xa803f10>'
p3931
sS'IS_IN_DB'
p3932
S"<class 'gluon.validators.IS_IN_DB'>"
p3933
sS'TAG'
p3934
S'<gluon.html.__TAG__ object at 0x53d3b90>'
p3935
sS'SQLField'
p3936
S"<class 'gluon.dal.Field'>"
p3937
sS'BODY'
p3938
S"<class 'gluon.html.BODY'>"
p3939
sS'IS_DATE_IN_RANGE'
p3940
S"<class 'gluon.validators.IS_DATE_IN_RANGE'>"
p3941
sS'IFRAME'
p3942
S"<class 'gluon.html.IFRAME'>"
p3943
sS'URL'
p3944
S'<function URL at 0x53e0db0>'
p3945
sS'__file__'
p3946
S"'/Applications/web2py.app/Contents/Resources/applications/183_Project/models/clinic.py'"
p3947
sS'P'
S"<class 'gluon.html.P'>"
p3948
sS'TFOOT'
p3949
S"<class 'gluon.html.TFOOT'>"
p3950
sS'XHTML'
p3951
S"<class 'gluon.html.XHTML'>"
p3952
sS'ON'
p3953
g1820
sS'OL'
p3954
S"<class 'gluon.html.OL'>"
p3955
sS'TEXTAREA'
p3956
S"<class 'gluon.html.TEXTAREA'>"
p3957
sS'MENU'
p3958
S"<class 'gluon.html.MENU'>"
p3959
sS'EM'
p3960
S"<class 'gluon.html.EM'>"
p3961
sS'CODE'
p3962
S"<class 'gluon.html.CODE'>"
p3963
sS'HTTP'
p3964
S"<class 'gluon.http.HTTP'>"
p3965
sS'HR'
p3966
S"<class 'gluon.html.HR'>"
p3967
sS'IS_DATETIME'
p3968
S"<class 'gluon.validators.IS_DATETIME'>"
p3969
sS'STYLE'
p3970
S"<class 'gluon.html.STYLE'>"
p3971
sS'LABEL'
p3972
S"<class 'gluon.html.LABEL'>"
p3973
sS'CLEANUP'
p3974
S"<class 'gluon.validators.CLEANUP'>"
p3975
sS'SELECT'
p3976
S"<class 'gluon.html.SELECT'>"
p3977
sS'CENTER'
p3978
S"<class 'gluon.html.CENTER'>"
p3979
sS'__builtins__'
p3980
S"{'ArithmeticError': <type 'exceptions.ArithmeticError'>, 'AssertionError': <type 'exceptions.AssertionError'>, 'AttributeError': <type 'exceptions.AttributeError'>, 'BaseException': <type 'exceptions.BaseException'>, 'DeprecationWarning': <type 'exceptions.DeprecationWarning'>, 'EOFError': <type 'exceptions.EOFError'>, 'Ellipsis': Ellipsis, 'EnvironmentError': <type 'exceptions.EnvironmentError'>, 'Exception': <type 'exceptions.Exception'>, 'False': False, ...}"
p3981
sS'HTML'
p3982
S"<class 'gluon.html.HTML'>"
p3983
sS'SQLFORM'
p3984
S"<class 'gluon.sqlhtml.SQLFORM'>"
p3985
sS'LOAD'
p3986
S'<function LOAD at 0x57158f0>'
p3987
sS'redirect'
p3988
S'<function redirect at 0x509c430>'
p3989
sS'FIELDSET'
p3990
S"<class 'gluon.html.FIELDSET'>"
p3991
sS'IS_EQUAL_TO'
p3992
S"<class 'gluon.validators.IS_EQUAL_TO'>"
p3993
sS'embed64'
p3994
S'<function embed64 at 0x54189f0>'
p3995
sS'IS_LIST_OF'
p3996
S"<class 'gluon.validators.IS_LIST_OF'>"
p3997
sS'INPUT'
p3998
S"<class 'gluon.html.INPUT'>"
p3999
sS'EMBED'
p4000
S"<class 'gluon.html.EMBED'>"
p4001
sS'FORM'
p4002
S"<class 'gluon.html.FORM'>"
p4003
sS'H2'
p4004
S"<class 'gluon.html.H2'>"
p4005
sS'H3'
p4006
S"<class 'gluon.html.H3'>"
p4007
sS'BUTTON'
p4008
S"<class 'gluon.html.BUTTON'>"
p4009
sS'H1'
p4010
S"<class 'gluon.html.H1'>"
p4011
sS'H6'
p4012
S"<class 'gluon.html.H6'>"
p4013
sS'H4'
p4014
S"<class 'gluon.html.H4'>"
p4015
sS'H5'
p4016
S"<class 'gluon.html.H5'>"
p4017
sS'UL'
p4018
S"<class 'gluon.html.UL'>"
p4019
sS'IS_UPPER'
p4020
S"<class 'gluon.validators.IS_UPPER'>"
p4021
sS'xmlescape'
p4022
S'<function xmlescape at 0x53e0ab0>'
p4023
sS'IS_TIME'
p4024
S"<class 'gluon.validators.IS_TIME'>"
p4025
sS'OPTION'
p4026
S"<class 'gluon.html.OPTION'>"
p4027
sS'TITLE'
p4028
S"<class 'gluon.html.TITLE'>"
p4029
sS'CRYPT'
p4030
S"<class 'gluon.validators.CRYPT'>"
p4031
sS'IS_EMPTY_OR'
p4032
S"<class 'gluon.validators.IS_EMPTY_OR'>"
p4033
sS'MARKMIN'
p4034
S"<class 'gluon.html.MARKMIN'>"
p4035
sS'__name__'
p4036
S"'__restricted__'"
p4037
sS'STRONG'
p4038
S"<class 'gluon.html.STRONG'>"
p4039
sS'COL'
p4040
S"<class 'gluon.html.COL'>"
p4041
sS'SCRIPT'
p4042
S"<class 'gluon.html.SCRIPT'>"
p4043
sS'TABLE'
p4044
S"<class 'gluon.html.TABLE'>"
p4045
sS'IS_IPV4'
p4046
S"<class 'gluon.validators.IS_IPV4'>"
p4047
sS'IS_LENGTH'
p4048
S"<class 'gluon.validators.IS_LENGTH'>"
p4049
sS'XML'
p4050
S"<class 'gluon.html.XML'>"
p4051
sS'B'
S"<class 'gluon.html.B'>"
p4052
sS'IMG'
p4053
S"<class 'gluon.html.IMG'>"
p4054
sS'SQLTABLE'
p4055
S"<class 'gluon.sqlhtml.SQLTABLE'>"
p4056
sS'IS_MATCH'
p4057
S"<class 'gluon.validators.IS_MATCH'>"
p4058
sS'IS_ALPHANUMERIC'
p4059
S"<class 'gluon.validators.IS_ALPHANUMERIC'>"
p4060
sS'SPAN'
p4061
S"<class 'gluon.html.SPAN'>"
p4062
sS'IS_SLUG'
p4063
S"<class 'gluon.validators.IS_SLUG'>"
p4064
sS'BEAUTIFY'
p4065
S"<class 'gluon.html.BEAUTIFY'>"
p4066
sS'META'
p4067
S"<class 'gluon.html.META'>"
p4068
sS'IS_DATE'
p4069
S"<class 'gluon.validators.IS_DATE'>"
p4070
sS'IS_EMAIL'
p4071
S"<class 'gluon.validators.IS_EMAIL'>"
p4072
sS'IS_NOT_EMPTY'
p4073
S"<class 'gluon.validators.IS_NOT_EMPTY'>"
p4074
sS'IS_FLOAT_IN_RANGE'
p4075
S"<class 'gluon.validators.IS_FLOAT_IN_RANGE'>"
p4076
sS'TBODY'
p4077
S"<class 'gluon.html.TBODY'>"
p4078
sS'CAT'
p4079
S"<class 'gluon.html.CAT'>"
p4080
sS'Field'
p4081
S"<class 'gluon.dal.Field'>"
p4082
sS'DIV'
p4083
S"<class 'gluon.html.DIV'>"
p4084
sS'LEGEND'
p4085
S"<class 'gluon.html.LEGEND'>"
p4086
sS'COLGROUP'
p4087
S"<class 'gluon.html.COLGROUP'>"
p4088
sS'DAL'
p4089
S"<class 'gluon.dal.DAL'>"
p4090
sS'TT'
p4091
S"<class 'gluon.html.TT'>"
p4092
sS'TR'
p4093
S"<class 'gluon.html.TR'>"
p4094
sS'LI'
p4095
S"<class 'gluon.html.LI'>"
p4096
sS'TH'
p4097
S"<class 'gluon.html.TH'>"
p4098
sS'TD'
p4099
S"<class 'gluon.html.TD'>"
p4100
sS'IS_URL'
p4101
S"<class 'gluon.validators.IS_URL'>"
p4102
sS'A'
S"<class 'gluon.html.A'>"
p4103
sS'HEAD'
p4104
S"<class 'gluon.html.HEAD'>"
p4105
sS'IS_DATETIME_IN_RANGE'
p4106
S"<class 'gluon.validators.IS_DATETIME_IN_RANGE'>"
p4107
sS'IS_IMAGE'
p4108
S"<class 'gluon.validators.IS_IMAGE'>"
p4109
sS'I'
S"<class 'gluon.html.I'>"
p4110
sS'IS_NOT_IN_DB'
p4111
S"<class 'gluon.validators.IS_NOT_IN_DB'>"
p4112
sg3250
S"<Storage {'body': <cStringIO.StringO object at 0...da> at 0xa5e4270>, 'view': 'default/index.html'}>"
p4113
sS'THEAD'
p4114
S"<class 'gluon.html.THEAD'>"
p4115
sS'IS_NULL_OR'
p4116
S"<class 'gluon.validators.IS_EMPTY_OR'>"
p4117
sg48
S"<Storage {'function': 'index', 'body': <cStringI...ations/183_Project/', 'post_vars': <Storage {}>}>"
p4118
sS'IS_EXPR'
p4119
S"<class 'gluon.validators.IS_EXPR'>"
p4120
sS'IS_IN_SET'
p4121
S"<class 'gluon.validators.IS_IN_SET'>"
p4122
sS'IS_UPLOAD_FILENAME'
p4123
S"<class 'gluon.validators.IS_UPLOAD_FILENAME'>"
p4124
sS'IS_DECIMAL_IN_RANGE'
p4125
S"<class 'gluon.validators.IS_DECIMAL_IN_RANGE'>"
p4126
sS'T'
S'<gluon.languages.translator object at 0xa803930>'
p4127
sssS'traceback'
p4128
S'Traceback (most recent call last):\n  File "gluon/restricted.py", line 209, in restricted\n  File "/Applications/web2py.app/Contents/Resources/applications/183_Project/models/clinic.py", line 1, in <module>\nNameError: name \'db\' is not defined\n'
p4129
s.